SH SERIES C/C++ Compiler (Ver. 6.0C)                                                                 03-Apr-2015 20:15:51  PAGE    1

************ OBJECT LISTING ************

FILE NAME: F:\0.ø™∑¢\2015-03-06–ﬁ∏ƒ…Ë÷√—°œÓ\2015-03-06–ﬁ∏ƒ…Ë÷√—°œÓ\SQX_parameter.c

SCT OFFSET   CODE       C LABEL     INSTRUCTION OPERAND    COMMENT

      SQX_parame     1    #include "headfile.h"
P   00000000              _PrintTables3:                   ; function: PrintTables3
                                                           ; frame size=44
    00000000 2FE6                   MOV.L       R14,@-R15
    00000002 6073                   MOV         R7,R0








    00000004 D350                   MOV.L       L954+6,R3  ; _strlen
    00000006 2FD6                   MOV.L       R13,@-R15
    00000008 2FC6                   MOV.L       R12,@-R15
    0000000A 6C63                   MOV         R6,R12
    0000000C 2FB6                   MOV.L       R11,@-R15
    0000000E EB1C                   MOV         #28,R11
    00000010 2FA6                   MOV.L       R10,@-R15
    00000012 2F96                   MOV.L       R9,@-R15
    00000014 2F86                   MOV.L       R8,@-R15
    00000016 6943                   MOV         R4,R9
    00000018 4F22                   STS.L       PR,@-R15
    0000001A 4F12                   STS.L       MACL,@-R15
    0000001C 7FF8                   ADD         #-8,R15
    0000001E 2F51                   MOV.W       R5,@R15
    00000020 81F2                   MOV.W       R0,@(4,R15)
    00000022 430B                   JSR         @R3
    00000024 64C3                   MOV         R12,R4
    00000026 6A03                   MOV         R0,R10
    00000028 63F1                   MOV.W       @R15,R3
    0000002A 62B3                   MOV         R11,R2
    0000002C 292F                   MULS        R2,R9
    0000002E 4308                   SHLL2       R3
    00000030 091A                   STS         MACL,R9
    00000032 4300                   SHLL        R3
    00000034 2F31                   MOV.W       R3,@R15
    00000036 7910                   ADD         #16,R9
    00000038 85F2                   MOV.W       @(4,R15),R0
    0000003A 6E3F                   EXTS.W      R3,R14
    0000003C 2008                   TST         R0,R0
    0000003E 8D1C                   BT/S        L821
    00000040 6D9F                   EXTS.W      R9,R13
    00000042 67E3                   MOV         R14,R7
    00000044 D141                   MOV.L       L954+10,R1 ; _Bdisp_AreaReverseVRAM
    00000046 66D3                   MOV         R13,R6
    00000048 7707                   ADD         #7,R7
    0000004A 761B                   ADD         #27,R6
    0000004C 65E3                   MOV         R14,R5
    0000004E 410B                   JSR         @R1
    00000050 64D3                   MOV         R13,R4
    00000052 E712                   MOV         #18,R7
    00000054 66C3                   MOV         R12,R6
    00000056 65E3                   MOV         R14,R5
    00000058 E02E                   MOV         #46,R0
    0000005A 03FD                   MOV.W       @(R0,R15),R3
    0000005C 2338                   TST         R3,R3
    0000005E 8D0A                   BT/S        L822
    00000060 7501                   ADD         #1,R5
    00000062 63A3                   MOV         R10,R3
    00000064 4A08                   SHLL2       R10




SH SERIES C/C++ Compiler (Ver. 6.0C)                                                                 03-Apr-2015 20:15:51  PAGE    2


SCT OFFSET   CODE       C LABEL     INSTRUCTION OPERAND    COMMENT

    00000066 3A3C                   ADD         R3,R10
    00000068 3BA8                   SUB         R10,R11
    0000006A 64B3                   MOV         R11,R4
    0000006C E300                   MOV         #0,R3
    0000006E 3347                   CMP/GT      R4,R3
    00000070 343E                   ADDC        R3,R4
    00000072 A025                   BRA         L946
    00000074 4421                   SHAR        R4
    00000076              L822:                             
    00000076 A023                   BRA         L946
    00000078 E400                   MOV         #0,R4
    0000007A              L821:                             
    0000007A 69E3                   MOV         R14,R9
    0000007C D134                   MOV.L       L954+14,R1 ; _Bdisp_DrawLineVRAM
    0000007E 68D3                   MOV         R13,R8
    00000080 7907                   ADD         #7,R9
    00000082 6793                   MOV         R9,R7
    00000084 781B                   ADD         #27,R8
    00000086 6683                   MOV         R8,R6
    00000088 65E3                   MOV         R14,R5
    0000008A 410B                   JSR         @R1
    0000008C 6483                   MOV         R8,R4
    0000008E 6793                   MOV         R9,R7
    00000090 D32F                   MOV.L       L954+14,R3 ; _Bdisp_DrawLineVRAM
    00000092 6683                   MOV         R8,R6
    00000094 6593                   MOV         R9,R5
    00000096 430B                   JSR         @R3
    00000098 64D3                   MOV         R13,R4
    0000009A E710                   MOV         #16,R7
    0000009C 66C3                   MOV         R12,R6
    0000009E 65E3                   MOV         R14,R5
    000000A0 E02E                   MOV         #46,R0
    000000A2 03FD                   MOV.W       @(R0,R15),R3
    000000A4 2338                   TST         R3,R3
    000000A6 8D0A                   BT/S        L825
    000000A8 7501                   ADD         #1,R5
    000000AA 63A3                   MOV         R10,R3
    000000AC 4A08                   SHLL2       R10
    000000AE 3A3C                   ADD         R3,R10
    000000B0 3BA8                   SUB         R10,R11
    000000B2 64B3                   MOV         R11,R4
    000000B4 E300                   MOV         #0,R3
    000000B6 3347                   CMP/GT      R4,R3
    000000B8 343E                   ADDC        R3,R4
    000000BA A001                   BRA         L946
    000000BC 4421                   SHAR        R4
    000000BE              L825:                             
    000000BE E400                   MOV         #0,R4
    000000C0              L946:                             
    000000C0 D324                   MOV.L       L954+18,R3 ; _PrintMini
    000000C2 34DC                   ADD         R13,R4
    000000C4 7401                   ADD         #1,R4
    000000C6 7F08                   ADD         #8,R15
    000000C8 4F16                   LDS.L       @R15+,MACL
    000000CA 4F26                   LDS.L       @R15+,PR
    000000CC 68F6                   MOV.L       @R15+,R8
    000000CE 69F6                   MOV.L       @R15+,R9




SH SERIES C/C++ Compiler (Ver. 6.0C)                                                                 03-Apr-2015 20:15:51  PAGE    3


SCT OFFSET   CODE       C LABEL     INSTRUCTION OPERAND    COMMENT

    000000D0 6AF6                   MOV.L       @R15+,R10
    000000D2 6BF6                   MOV.L       @R15+,R11
    000000D4 6CF6                   MOV.L       @R15+,R12
    000000D6 6DF6                   MOV.L       @R15+,R13
    000000D8 432B                   JMP         @R3
    000000DA 6EF6                   MOV.L       @R15+,R14

    000000DC              _PrintTableFormats3:             ; function: PrintTableFormats3
                                                           ; frame size=156
    000000DC 2FE6                   MOV.L       R14,@-R15
    000000DE 4F22                   STS.L       PR,@-R15
    000000E0 902F                   MOV.W       L954,R0    ; H'FF70
    000000E2 3F0C                   ADD         R0,R15
    000000E4 6043                   MOV         R4,R0
    000000E6 81F2                   MOV.W       R0,@(4,R15)
    000000E8 6053                   MOV         R5,R0
    000000EA E503                   MOV         #3,R5
    000000EC 81F4                   MOV.W       R0,@(8,R15)
    000000EE 6063                   MOV         R6,R0
    000000F0 81F6                   MOV.W       R0,@(12,R15)
    000000F2 2F71                   MOV.W       R7,@R15
    000000F4 9026                   MOV.W       L954+2,R0  ; H'0098
    000000F6 30FC                   ADD         R15,R0
    000000F8 7004                   ADD         #4,R0
    000000FA 2508                   TST         R0,R5
    000000FC 8903                   BT          L827
    000000FE 9521                   MOV.W       L954+2,R5  ; H'0098
    00000100 35FC                   ADD         R15,R5
    00000102 A003                   BRA         L828
    00000104 7508                   ADD         #8,R5
    00000106              L827:                             
    00000106 951D                   MOV.W       L954+2,R5  ; H'0098
    00000108 35FC                   ADD         R15,R5
    0000010A 7504                   ADD         #4,R5
    0000010C              L828:                             
    0000010C 901A                   MOV.W       L954+2,R0  ; H'0098
    0000010E 6EF3                   MOV         R15,R14
    00000110 D311                   MOV.L       L954+22,R3 ; _vsprintf
    00000112 6653                   MOV         R5,R6
    00000114 05FE                   MOV.L       @(R0,R15),R5
    00000116 7E10                   ADD         #16,R14
    00000118 430B                   JSR         @R3
    0000011A 64E3                   MOV         R14,R4
    0000011C E000                   MOV         #0,R0
    0000011E 66E3                   MOV         R14,R6
    00000120 80E6                   MOV.B       R0,@(6,R14)
    00000122 63F1                   MOV.W       @R15,R3
    00000124 2F36                   MOV.L       R3,@-R15
    00000126 85F8                   MOV.W       @(16,R15),R0
    00000128 D30C                   MOV.L       L954+26,R3 ; _PrintTables
    0000012A 6703                   MOV         R0,R7
    0000012C 85F6                   MOV.W       @(12,R15),R0
    0000012E 6503                   MOV         R0,R5
    00000130 85F4                   MOV.W       @(8,R15),R0
    00000132 430B                   JSR         @R3
    00000134 6403                   MOV         R0,R4
    00000136 E000                   MOV         #0,R0
    00000138 9105                   MOV.W       L954+4,R1  ; H'0094




SH SERIES C/C++ Compiler (Ver. 6.0C)                                                                 03-Apr-2015 20:15:51  PAGE    4


SCT OFFSET   CODE       C LABEL     INSTRUCTION OPERAND    COMMENT

    0000013A 3F1C                   ADD         R1,R15
    0000013C 4F26                   LDS.L       @R15+,PR
    0000013E 000B                   RTS
    00000140 6EF6                   MOV.L       @R15+,R14
    00000142              L954:                             
    00000142 FF70                   .DATA.W     H'FF70
    00000144 0098                   .DATA.W     H'0098
    00000146 0094                   .DATA.W     H'0094
    00000148 <00000000>             .DATA.L     _strlen
    0000014C <00000000>             .DATA.L     _Bdisp_AreaReverseVRAM
    00000150 <00000000>             .DATA.L     _Bdisp_DrawLineVRAM
    00000154 <00000000>             .DATA.L     _PrintMini
    00000158 <00000000>             .DATA.L     _vsprintf
    0000015C <00000000>             .DATA.L     _PrintTables
    00000160              _PrintTableIndexs3:              ; function: PrintTableIndexs3
                                                           ; frame size=28
    00000160 2FE6                   MOV.L       R14,@-R15
    00000162 2FD6                   MOV.L       R13,@-R15
    00000164 4F22                   STS.L       PR,@-R15
    00000166 6D53                   MOV         R5,R13
    00000168 7FF8                   ADD         #-8,R15
    0000016A 4D11                   CMP/PZ      R13
    0000016C 8F03                   BF/S        L831
    0000016E 6E43                   MOV         R4,R14
    00000170 927C                   MOV.W       L955,R2    ; H'03E7
    00000172 3D27                   CMP/GT      R2,R13
    00000174 8B01                   BF          L830
    00000176              L831:                             
    00000176 A018                   BRA         L832
    00000178 E000                   MOV         #0,R0
    0000017A              L830:                             
    0000017A 2FD6                   MOV.L       R13,@-R15
    0000017C D23D                   MOV.L       L955+8,R2  ; L548
    0000017E 2F26                   MOV.L       R2,@-R15
    00000180 D33D                   MOV.L       L955+12,R3 ; _sprintf
    00000182 64F3                   MOV         R15,R4
    00000184 430B                   JSR         @R3
    00000186 7408                   ADD         #8,R4
    00000188 D23C                   MOV.L       L955+16,R2 ; _Bdisp_AreaReverseVRAM
    0000018A 7F08                   ADD         #8,R15
    0000018C 4E08                   SHLL2       R14
    0000018E 4E00                   SHLL        R14
    00000190 67E3                   MOV         R14,R7
    00000192 7707                   ADD         #7,R7
    00000194 E60F                   MOV         #15,R6
    00000196 65E3                   MOV         R14,R5
    00000198 420B                   JSR         @R2
    0000019A E400                   MOV         #0,R4
    0000019C D338                   MOV.L       L955+20,R3 ; _PrintMini
    0000019E E712                   MOV         #18,R7
    000001A0 66F3                   MOV         R15,R6
    000001A2 65E3                   MOV         R14,R5
    000001A4 7502                   ADD         #2,R5
    000001A6 430B                   JSR         @R3
    000001A8 E401                   MOV         #1,R4
    000001AA              L832:                             
    000001AA 7F08                   ADD         #8,R15




SH SERIES C/C++ Compiler (Ver. 6.0C)                                                                 03-Apr-2015 20:15:51  PAGE    5


SCT OFFSET   CODE       C LABEL     INSTRUCTION OPERAND    COMMENT

    000001AC 4F26                   LDS.L       @R15+,PR
    000001AE 6DF6                   MOV.L       @R15+,R13
    000001B0 000B                   RTS
    000001B2 6EF6                   MOV.L       @R15+,R14
    000001B4              _WhetherCover3:                  ; function: WhetherCover3
                                                           ; frame size=24
    000001B4 2FE6                   MOV.L       R14,@-R15
    000001B6 2FD6                   MOV.L       R13,@-R15
    000001B8 2FC6                   MOV.L       R12,@-R15
    000001BA 2FB6                   MOV.L       R11,@-R15
    000001BC 2FA6                   MOV.L       R10,@-R15
    000001BE 4F22                   STS.L       PR,@-R15
    000001C0 D330                   MOV.L       L955+24,R3 ; _PopUpWin
    000001C2 430B                   JSR         @R3
    000001C4 E405                   MOV         #5,R4
    000001C6 E50C                   MOV         #12,R5
    000001C8 D230                   MOV.L       L955+32,R2 ; _DispStr
    000001CA D62F                   MOV.L       L955+28,R6 ; L552
    000001CC 420B                   JSR         @R2
    000001CE E430                   MOV         #48,R4
    000001D0 D32F                   MOV.L       L955+36,R3 ; _locate
    000001D2 E505                   MOV         #5,R5
    000001D4 430B                   JSR         @R3
    000001D6 E407                   MOV         #7,R4
    000001D8 D42E                   MOV.L       L955+40,R4 ; L553
    000001DA D22F                   MOV.L       L955+44,R2 ; _Print
    000001DC 420B                   JSR         @R2
    000001DE 0009                   NOP
    000001E0 D32B                   MOV.L       L955+36,R3 ; _locate
    000001E2 E506                   MOV         #6,R5
    000001E4 430B                   JSR         @R3
    000001E6 E407                   MOV         #7,R4
    000001E8 D42C                   MOV.L       L955+48,R4 ; L554
    000001EA D22B                   MOV.L       L955+44,R2 ; _Print
    000001EC 420B                   JSR         @R2
    000001EE 0009                   NOP
    000001F0 DA2B                   MOV.L       L955+52,R10; _GetKey
    000001F2 EB00                   MOV         #0,R11
    000001F4 9C3B                   MOV.W       L955+2,R12 ; H'753E
    000001F6 ED01                   MOV         #1,R13
    000001F8 DE2A                   MOV.L       L955+56,R14; _key
    000001FA D42A                   MOV.L       L955+56,R4 ; _key
    000001FC 4A0B                   JSR         @R10
    000001FE 0009                   NOP
    00000200 63E2                   MOV.L       @R14,R3
    00000202 33C0                   CMP/EQ      R12,R3
    00000204 8903                   BT          L835
    00000206 9133                   MOV.W       L955+4,R1  ; H'7532
    00000208 62E2                   MOV.L       @R14,R2
    0000020A 3210                   CMP/EQ      R1,R2
    0000020C 8B01                   BF          L834
    0000020E              L835:                             
    0000020E A001                   BRA         L836
    00000210 64B3                   MOV         R11,R4
    00000212              L834:                             
    00000212 64D3                   MOV         R13,R4
    00000214              L836:                             




SH SERIES C/C++ Compiler (Ver. 6.0C)                                                                 03-Apr-2015 20:15:51  PAGE    6


SCT OFFSET   CODE       C LABEL     INSTRUCTION OPERAND    COMMENT

    00000214 4F26                   LDS.L       @R15+,PR
    00000216 6043                   MOV         R4,R0
    00000218 6AF6                   MOV.L       @R15+,R10
    0000021A 6BF6                   MOV.L       @R15+,R11
    0000021C 6CF6                   MOV.L       @R15+,R12
    0000021E 6DF6                   MOV.L       @R15+,R13
    00000220 000B                   RTS
    00000222 6EF6                   MOV.L       @R15+,R14
    00000224              _WheterSavaAS3:                  ; function: WheterSavaAS3
                                                           ; frame size=48
                                                           ; used runtime library name:
                                                           ; __slow_mvn, __slow_strcpy
    00000224 2FE6                   MOV.L       R14,@-R15
    00000226 2FD6                   MOV.L       R13,@-R15
    00000228 2FC6                   MOV.L       R12,@-R15
    0000022A 2FB6                   MOV.L       R11,@-R15
    0000022C 2FA6                   MOV.L       R10,@-R15
    0000022E 2F96                   MOV.L       R9,@-R15
    00000230 4F22                   STS.L       PR,@-R15
    00000232 7FF0                   ADD         #-16,R15
    00000234 D21C                   MOV.L       L955+60,R2 ; L561
    00000236 6EF3                   MOV         R15,R14
    00000238 D31C                   MOV.L       L955+64,R3 ; __slow_mvn
    0000023A 61F3                   MOV         R15,R1
    0000023C 430B                   JSR         @R3
    0000023E E00D                   MOV         #13,R0
    00000240 DC1B                   MOV.L       L955+68,R12; _setup_data
    00000242 E600                   MOV         #0,R6
    00000244 E50D                   MOV         #13,R5
    00000246 A007                   BRA         L840
    00000248 6463                   MOV         R6,R4
    0000024A              L841:                             
    0000024A 6043                   MOV         R4,R0
    0000024C 63C3                   MOV         R12,R3
    0000024E 7304                   ADD         #4,R3
    00000250 334C                   ADD         R4,R3
    00000252 7401                   ADD         #1,R4
    00000254 6330                   MOV.B       @R3,R3
    00000256 0E34                   MOV.B       R3,@(R0,R14)
    00000258              L840:                             
    00000258 3453                   CMP/GE      R5,R4
    0000025A 8903                   BT          L842
    0000025C D015                   MOV.L       L955+72,R0 ; H'00000004+_setup_data
    0000025E 004C                   MOV.B       @(R0,R4),R0
    00000260 882E                   CMP/EQ      #46,R0
    00000262 8BF2                   BF          L841
    00000264              L842:                             
    00000264 3453                   CMP/GE      R5,R4
    00000266 8B27                   BF          L843
    00000268 A027                   BRA         L844
    0000026A E00C                   MOV         #12,R0
    0000026C              L955:                             
    0000026C 03E7                   .DATA.W     H'03E7
    0000026E 753E                   .DATA.W     H'753E
    00000270 7532                   .DATA.W     H'7532
    00000272 0000                   .DATA.W     0
    00000274 <00000000>             .DATA.L     L548




SH SERIES C/C++ Compiler (Ver. 6.0C)                                                                 03-Apr-2015 20:15:51  PAGE    7


SCT OFFSET   CODE       C LABEL     INSTRUCTION OPERAND    COMMENT

    00000278 <00000000>             .DATA.L     _sprintf
    0000027C <00000000>             .DATA.L     _Bdisp_AreaReverseVRAM
    00000280 <00000000>             .DATA.L     _PrintMini
    00000284 <00000000>             .DATA.L     _PopUpWin
    00000288 <00000000>             .DATA.L     L552
    0000028C <00000000>             .DATA.L     _DispStr
    00000290 <00000000>             .DATA.L     _locate
    00000294 <00000000>             .DATA.L     L553
    00000298 <00000000>             .DATA.L     _Print
    0000029C <00000000>             .DATA.L     L554
    000002A0 <00000000>             .DATA.L     _GetKey
    000002A4 <00000000>             .DATA.L     _key
    000002A8 <00000000>             .DATA.L     L561
    000002AC <00000000>             .DATA.L     __slow_mvn
    000002B0 <00000000>             .DATA.L     _setup_data
    000002B4 <00000004>             .DATA.L     H'00000004+_setup_data
    000002B8              L843:                             
    000002B8 6043                   MOV         R4,R0
    000002BA              L844:                             
    000002BA 0E64                   MOV.B       R6,@(R0,R14)
    000002BC D21F                   MOV.L       L956+2,R2  ; _PopUpWin
    000002BE 420B                   JSR         @R2
    000002C0 E404                   MOV         #4,R4
    000002C2 E508                   MOV         #8,R5
    000002C4 D31F                   MOV.L       L956+10,R3 ; _DispStr
    000002C6 D61E                   MOV.L       L956+6,R6  ; L565
    000002C8 430B                   JSR         @R3
    000002CA E418                   MOV         #24,R4
    000002CC D91E                   MOV.L       L956+14,R9 ; _InputString
    000002CE 6AE3                   MOV         R14,R10
    000002D0 9B33                   MOV.W       L956,R11   ; H'7534
    000002D2 6DB3                   MOV         R11,R13
    000002D4 7DFE                   ADD         #-2,R13
    000002D6              L845:                             
    000002D6 E208                   MOV         #8,R2
    000002D8 2F26                   MOV.L       R2,@-R15
    000002DA E701                   MOV         #1,R7
    000002DC 66E3                   MOV         R14,R6
    000002DE E518                   MOV         #24,R5
    000002E0 490B                   JSR         @R9
    000002E2 6453                   MOV         R5,R4
    000002E4 6403                   MOV         R0,R4
    000002E6 34D0                   CMP/EQ      R13,R4
    000002E8 8D1E                   BT/S        L850
    000002EA 7F04                   ADD         #4,R15
    000002EC 63A0                   MOV.B       @R10,R3
    000002EE 2338                   TST         R3,R3
    000002F0 34B0                   CMP/EQ      R11,R4
    000002F2 8BF0                   BF          L845
    000002F4 34D0                   CMP/EQ      R13,R4
    000002F6 8917                   BT          L850

    000002F8 D514                   MOV.L       L956+18,R5 ; L568
    000002FA ED01                   MOV         #1,R13
    000002FC D214                   MOV.L       L956+22,R2 ; _strcat
    000002FE 420B                   JSR         @R2
    00000300 64E3                   MOV         R14,R4
    00000302 D314                   MOV.L       L956+26,R3 ; _TestSRDFile




SH SERIES C/C++ Compiler (Ver. 6.0C)                                                                 03-Apr-2015 20:15:51  PAGE    8


SCT OFFSET   CODE       C LABEL     INSTRUCTION OPERAND    COMMENT

    00000304 430B                   JSR         @R3
    00000306 64E3                   MOV         R14,R4
    00000308 2008                   TST         R0,R0
    0000030A 8903                   BT          L851
    0000030C D312                   MOV.L       L956+30,R3 ; _WhetherCover
    0000030E 430B                   JSR         @R3
    00000310 0009                   NOP
    00000312 6D03                   MOV         R0,R13
    00000314              L851:                             

    00000314 2DD8                   TST         R13,R13
    00000316 8907                   BT          L850
    00000318 D310                   MOV.L       L956+34,R3 ; _SaveSRDFile
    0000031A 430B                   JSR         @R3
    0000031C 64E3                   MOV         R14,R4

    0000031E 61E3                   MOV         R14,R1
    00000320 D20F                   MOV.L       L956+38,R2 ; __slow_strcpy
    00000322 60C3                   MOV         R12,R0
    00000324 420B                   JSR         @R2
    00000326 7004                   ADD         #4,R0
    00000328              L850:                             
    00000328 7F10                   ADD         #16,R15
    0000032A 4F26                   LDS.L       @R15+,PR
    0000032C 69F6                   MOV.L       @R15+,R9
    0000032E 6AF6                   MOV.L       @R15+,R10
    00000330 6BF6                   MOV.L       @R15+,R11
    00000332 6CF6                   MOV.L       @R15+,R12
    00000334 6DF6                   MOV.L       @R15+,R13
    00000336 000B                   RTS
    00000338 6EF6                   MOV.L       @R15+,R14
    0000033A              L956:                             
    0000033A 7534                   .DATA.W     H'7534
    0000033C <00000000>             .DATA.L     _PopUpWin
    00000340 <00000000>             .DATA.L     L565
    00000344 <00000000>             .DATA.L     _DispStr
    00000348 <00000000>             .DATA.L     _InputString
    0000034C <00000000>             .DATA.L     L568
    00000350 <00000000>             .DATA.L     _strcat
    00000354 <00000000>             .DATA.L     _TestSRDFile
    00000358 <00000000>             .DATA.L     _WhetherCover
    0000035C <00000000>             .DATA.L     _SaveSRDFile
    00000360 <00000000>             .DATA.L     __slow_strcpy
    00000364              _SelSetupF53:                    ; function: SelSetupF53
                                                           ; frame size=68
                                                           ; used runtime library name:
                                                           ; __slow_mvn, __slow_strcpy
    00000364 2FE6                   MOV.L       R14,@-R15
    00000366 2FD6                   MOV.L       R13,@-R15
    00000368 2FC6                   MOV.L       R12,@-R15
    0000036A 2FB6                   MOV.L       R11,@-R15
    0000036C 2FA6                   MOV.L       R10,@-R15
    0000036E EB00                   MOV         #0,R11
    00000370 DD44                   MOV.L       L957+10,R13; _index
    00000372 2F96                   MOV.L       R9,@-R15
    00000374 2F86                   MOV.L       R8,@-R15
    00000376 E901                   MOV         #1,R9
    00000378 D343                   MOV.L       L957+14,R3 ; _need_redraw
    0000037A 4F22                   STS.L       PR,@-R15




SH SERIES C/C++ Compiler (Ver. 6.0C)                                                                 03-Apr-2015 20:15:51  PAGE    9


SCT OFFSET   CODE       C LABEL     INSTRUCTION OPERAND    COMMENT

    0000037C D543                   MOV.L       L957+18,R5 ; _stAsc6x12
    0000037E 7FE8                   ADD         #-24,R15
    00000380 D443                   MOV.L       L957+22,R4 ; _stHz12x12
    00000382 2DB2                   MOV.L       R11,@R13
    00000384 D243                   MOV.L       L957+26,R2 ; _SetMyFont
    00000386 420B                   JSR         @R2
    00000388 2392                   MOV.L       R9,@R3
    0000038A 6EF3                   MOV         R15,R14
    0000038C D842                   MOV.L       L957+30,R8 ; _locate
    0000038E 7E08                   ADD         #8,R14
    00000390 DA42                   MOV.L       L957+34,R10; _setup_data
    00000392 63E3                   MOV         R14,R3
    00000394 DC42                   MOV.L       L957+38,R12; _key
    00000396 1F31                   MOV.L       R3,@(4,R15)
    00000398              L854:                             
    00000398 D13B                   MOV.L       L957+14,R1 ; _need_redraw
    0000039A 6012                   MOV.L       @R1,R0
    0000039C 8801                   CMP/EQ      #1,R0
    0000039E 8B35                   BF          L855
    000003A0 D240                   MOV.L       L957+42,R2 ; _PopUpWin
    000003A2 420B                   JSR         @R2
    000003A4 E406                   MOV         #6,R4
    000003A6 E70A                   MOV         #10,R7
    000003A8 D240                   MOV.L       L957+50,R2 ; _DrawPicture
    000003AA E610                   MOV         #16,R6
    000003AC D33E                   MOV.L       L957+46,R3 ; _G_ICON_SAVE
    000003AE E509                   MOV         #9,R5
    000003B0 2F36                   MOV.L       R3,@-R15
    000003B2 420B                   JSR         @R2
    000003B4 E420                   MOV         #32,R4
    000003B6 E508                   MOV         #8,R5
    000003B8 D33E                   MOV.L       L957+58,R3 ; _DispStr
    000003BA D63D                   MOV.L       L957+54,R6 ; L576
    000003BC 430B                   JSR         @R3
    000003BE E430                   MOV         #48,R4
    000003C0 D23D                   MOV.L       L957+62,R2 ; _G_ICON_OPEN
    000003C2 E70A                   MOV         #10,R7
    000003C4 D339                   MOV.L       L957+50,R3 ; _DrawPicture
    000003C6 E610                   MOV         #16,R6
    000003C8 2F26                   MOV.L       R2,@-R15
    000003CA E519                   MOV         #25,R5
    000003CC 430B                   JSR         @R3
    000003CE E420                   MOV         #32,R4
    000003D0 D63A                   MOV.L       L957+66,R6 ; L577
    000003D2 E518                   MOV         #24,R5
    000003D4 D237                   MOV.L       L957+58,R2 ; _DispStr
    000003D6 420B                   JSR         @R2
    000003D8 E430                   MOV         #48,R4
    000003DA E70A                   MOV         #10,R7
    000003DC D233                   MOV.L       L957+50,R2 ; _DrawPicture
    000003DE E610                   MOV         #16,R6
    000003E0 D337                   MOV.L       L957+70,R3 ; _G_ICON_OTHER
    000003E2 E529                   MOV         #41,R5
    000003E4 2F36                   MOV.L       R3,@-R15
    000003E6 420B                   JSR         @R2
    000003E8 E420                   MOV         #32,R4
    000003EA 7F0C                   ADD         #12,R15




SH SERIES C/C++ Compiler (Ver. 6.0C)                                                                 03-Apr-2015 20:15:51  PAGE   10


SCT OFFSET   CODE       C LABEL     INSTRUCTION OPERAND    COMMENT

    000003EC D635                   MOV.L       L957+74,R6 ; L578
    000003EE E528                   MOV         #40,R5
    000003F0 D330                   MOV.L       L957+58,R3 ; _DispStr
    000003F2 430B                   JSR         @R3
    000003F4 E430                   MOV         #48,R4
    000003F6 E670                   MOV         #112,R6
    000003F8 D333                   MOV.L       L957+78,R3 ; _Bdisp_AreaReverseVRAM
    000003FA 67D2                   MOV.L       @R13,R7
    000003FC 4708                   SHLL2       R7
    000003FE 4708                   SHLL2       R7
    00000400 2F72                   MOV.L       R7,@R15
    00000402 7714                   ADD         #20,R7
    00000404 65F2                   MOV.L       @R15,R5
    00000406 7508                   ADD         #8,R5
    00000408 430B                   JSR         @R3
    0000040A E40E                   MOV         #14,R4
    0000040C              L855:                             
    0000040C D424                   MOV.L       L957+38,R4 ; _key
    0000040E D22F                   MOV.L       L957+82,R2 ; _GetKey
    00000410 420B                   JSR         @R2
    00000412 0009                   NOP
    00000414 9331                   MOV.W       L957,R3    ; H'7542
    00000416 62C2                   MOV.L       @R12,R2
    00000418 3230                   CMP/EQ      R3,R2
    0000041A 8B08                   BF          L856
    0000041C 60D2                   MOV.L       @R13,R0
    0000041E 70FF                   ADD         #-1,R0
    00000420 4011                   CMP/PZ      R0
    00000422 8D02                   BT/S        L857
    00000424 2D02                   MOV.L       R0,@R13
    00000426 E102                   MOV         #2,R1
    00000428 2D12                   MOV.L       R1,@R13
    0000042A              L857:                             
    0000042A D317                   MOV.L       L957+14,R3 ; _need_redraw
    0000042C 2392                   MOV.L       R9,@R3
    0000042E              L856:                             
    0000042E 9225                   MOV.W       L957+2,R2  ; H'7547
    00000430 61C2                   MOV.L       @R12,R1
    00000432 3120                   CMP/EQ      R2,R1
    00000434 8B08                   BF          L858
    00000436 E302                   MOV         #2,R3
    00000438 60D2                   MOV.L       @R13,R0
    0000043A 7001                   ADD         #1,R0
    0000043C 3037                   CMP/GT      R3,R0
    0000043E 8F01                   BF/S        L859
    00000440 2D02                   MOV.L       R0,@R13
    00000442 2DB2                   MOV.L       R11,@R13
    00000444              L859:                             
    00000444 D310                   MOV.L       L957+14,R3 ; _need_redraw
    00000446 2392                   MOV.L       R9,@R3
    00000448              L858:                             
    00000448 64C2                   MOV.L       @R12,R4
    0000044A 9218                   MOV.W       L957+4,R2  ; H'7532
    0000044C 3420                   CMP/EQ      R2,R4
    0000044E 8B01                   BF          L958
    00000450 A162                   BRA         __$EXIT$599
    00000452 0009                   NOP




SH SERIES C/C++ Compiler (Ver. 6.0C)                                                                 03-Apr-2015 20:15:51  PAGE   11


SCT OFFSET   CODE       C LABEL     INSTRUCTION OPERAND    COMMENT

    00000454              L958:                             
    00000454 9314                   MOV.W       L957+6,R3  ; H'7534
    00000456 3430                   CMP/EQ      R3,R4
    00000458 8B9E                   BF          L854
    0000045A 61F3                   MOV         R15,R1
    0000045C D21C                   MOV.L       L957+86,R2 ; L583
    0000045E 7108                   ADD         #8,R1
    00000460 D31C                   MOV.L       L957+90,R3 ; __slow_mvn
    00000462 430B                   JSR         @R3
    00000464 E00D                   MOV         #13,R0
    00000466 60D2                   MOV.L       @R13,R0
    00000468 8800                   CMP/EQ      #0,R0
    0000046A 893A                   BT          L731
    0000046C 8801                   CMP/EQ      #1,R0
    0000046E 8B01                   BF          L959
    00000470 A0D2                   BRA         L732
    00000472 0009                   NOP
    00000474              L959:                             
    00000474 8802                   CMP/EQ      #2,R0
    00000476 A02F                   BRA         L947
    00000478 0009                   NOP
    0000047A              L957:                             
    0000047A 7542                   .DATA.W     H'7542
    0000047C 7547                   .DATA.W     H'7547
    0000047E 7532                   .DATA.W     H'7532
    00000480 7534                   .DATA.W     H'7534
    00000482 0000                   .DATA.W     0
    00000484 <00000000>             .DATA.L     _index
    00000488 <00000000>             .DATA.L     _need_redraw
    0000048C <00000000>             .DATA.L     _stAsc6x12
    00000490 <00000000>             .DATA.L     _stHz12x12
    00000494 <00000000>             .DATA.L     _SetMyFont
    00000498 <00000000>             .DATA.L     _locate
    0000049C <00000000>             .DATA.L     _setup_data
    000004A0 <00000000>             .DATA.L     _key
    000004A4 <00000000>             .DATA.L     _PopUpWin
    000004A8 <00000000>             .DATA.L     _G_ICON_SAVE
    000004AC <00000000>             .DATA.L     _DrawPicture
    000004B0 <00000000>             .DATA.L     L576
    000004B4 <00000000>             .DATA.L     _DispStr
    000004B8 <00000000>             .DATA.L     _G_ICON_OPEN
    000004BC <00000000>             .DATA.L     L577
    000004C0 <00000000>             .DATA.L     _G_ICON_OTHER
    000004C4 <00000000>             .DATA.L     L578
    000004C8 <00000000>             .DATA.L     _Bdisp_AreaReverseVRAM
    000004CC <00000000>             .DATA.L     _GetKey
    000004D0 <00000000>             .DATA.L     L583
    000004D4 <00000000>             .DATA.L     __slow_mvn
    000004D8              L947:                             
    000004D8 8B01                   BF          L960
    000004DA A0C7                   BRA         L734
    000004DC 0009                   NOP
    000004DE              L960:                             
    000004DE A118                   BRA         L863
    000004E0 0009                   NOP
    000004E2              L731:                            ; case label 
    000004E2 A007                   BRA         L864




SH SERIES C/C++ Compiler (Ver. 6.0C)                                                                 03-Apr-2015 20:15:51  PAGE   12


SCT OFFSET   CODE       C LABEL     INSTRUCTION OPERAND    COMMENT

    000004E4 64B3                   MOV         R11,R4
    000004E6              L865:                             
    000004E6 6043                   MOV         R4,R0
    000004E8 63A3                   MOV         R10,R3
    000004EA 7304                   ADD         #4,R3
    000004EC 334C                   ADD         R4,R3
    000004EE 7401                   ADD         #1,R4
    000004F0 6330                   MOV.B       @R3,R3
    000004F2 0E34                   MOV.B       R3,@(R0,R14)
    000004F4              L864:                             
    000004F4 E20D                   MOV         #13,R2
    000004F6 3423                   CMP/GE      R2,R4
    000004F8 8903                   BT          L866
    000004FA D037                   MOV.L       L961+6,R0  ; H'00000004+_setup_data
    000004FC 004C                   MOV.B       @(R0,R4),R0
    000004FE 882E                   CMP/EQ      #46,R0
    00000500 8BF1                   BF          L865
    00000502              L866:                             
    00000502 E30D                   MOV         #13,R3
    00000504 3433                   CMP/GE      R3,R4
    00000506 8B01                   BF          L867
    00000508 A001                   BRA         L868
    0000050A E20C                   MOV         #12,R2
    0000050C              L867:                             
    0000050C 6243                   MOV         R4,R2
    0000050E              L868:                             
    0000050E 32EC                   ADD         R14,R2
    00000510 22B0                   MOV.B       R11,@R2
    00000512 D232                   MOV.L       L961+10,R2 ; _PopUpWin
    00000514 420B                   JSR         @R2
    00000516 E404                   MOV         #4,R4
    00000518 D631                   MOV.L       L961+14,R6 ; L565
    0000051A E508                   MOV         #8,R5
    0000051C D331                   MOV.L       L961+18,R3 ; _DispStr
    0000051E 430B                   JSR         @R3
    00000520 E418                   MOV         #24,R4
    00000522              L869:                             
    00000522 E208                   MOV         #8,R2
    00000524 D330                   MOV.L       L961+22,R3 ; _InputString
    00000526 E701                   MOV         #1,R7
    00000528 2F26                   MOV.L       R2,@-R15
    0000052A 66E3                   MOV         R14,R6
    0000052C E518                   MOV         #24,R5
    0000052E 430B                   JSR         @R3
    00000530 6453                   MOV         R5,R4
    00000532 6403                   MOV         R0,R4
    00000534 924D                   MOV.W       L961,R2    ; H'7532
    00000536 3420                   CMP/EQ      R2,R4
    00000538 8F02                   BF/S        L962
    0000053A 7F04                   ADD         #4,R15
    0000053C A0E9                   BRA         L863
    0000053E 0009                   NOP
    00000540              L962:                             
    00000540 53F1                   MOV.L       @(4,R15),R3
    00000542 6230                   MOV.B       @R3,R2
    00000544 9146                   MOV.W       L961+2,R1  ; H'7534
    00000546 2228                   TST         R2,R2




SH SERIES C/C++ Compiler (Ver. 6.0C)                                                                 03-Apr-2015 20:15:51  PAGE   13


SCT OFFSET   CODE       C LABEL     INSTRUCTION OPERAND    COMMENT

    00000548 3410                   CMP/EQ      R1,R4
    0000054A 8BEA                   BF          L869
    0000054C 9241                   MOV.W       L961,R2    ; H'7532
    0000054E 3420                   CMP/EQ      R2,R4
    00000550 8B01                   BF          L963
    00000552 A0DE                   BRA         L863
    00000554 0009                   NOP
    00000556              L963:                             
    00000556 2F92                   MOV.L       R9,@R15
    00000558 D524                   MOV.L       L961+26,R5 ; L568
    0000055A D325                   MOV.L       L961+30,R3 ; _strcat
    0000055C 430B                   JSR         @R3
    0000055E 64E3                   MOV         R14,R4
    00000560 D224                   MOV.L       L961+34,R2 ; _TestSRDFile
    00000562 420B                   JSR         @R2
    00000564 64E3                   MOV         R14,R4
    00000566 2008                   TST         R0,R0
    00000568 8924                   BT          L875
    0000056A D21C                   MOV.L       L961+10,R2 ; _PopUpWin
    0000056C 420B                   JSR         @R2
    0000056E E405                   MOV         #5,R4
    00000570 D621                   MOV.L       L961+38,R6 ; L552
    00000572 E50C                   MOV         #12,R5
    00000574 D31B                   MOV.L       L961+18,R3 ; _DispStr
    00000576 430B                   JSR         @R3
    00000578 E430                   MOV         #48,R4
    0000057A E505                   MOV         #5,R5
    0000057C 480B                   JSR         @R8
    0000057E E407                   MOV         #7,R4
    00000580 D41E                   MOV.L       L961+42,R4 ; L553
    00000582 D21F                   MOV.L       L961+46,R2 ; _Print
    00000584 420B                   JSR         @R2
    00000586 0009                   NOP
    00000588 E506                   MOV         #6,R5
    0000058A 480B                   JSR         @R8
    0000058C E407                   MOV         #7,R4
    0000058E D41D                   MOV.L       L961+50,R4 ; L554
    00000590 D31B                   MOV.L       L961+46,R3 ; _Print
    00000592 430B                   JSR         @R3
    00000594 0009                   NOP
    00000596 D41C                   MOV.L       L961+54,R4 ; _key
    00000598 D21C                   MOV.L       L961+58,R2 ; _GetKey
    0000059A 420B                   JSR         @R2
    0000059C 0009                   NOP
    0000059E 931A                   MOV.W       L961+4,R3  ; H'753E
    000005A0 62C2                   MOV.L       @R12,R2
    000005A2 3230                   CMP/EQ      R3,R2
    000005A4 8903                   BT          L878
    000005A6 9014                   MOV.W       L961,R0    ; H'7532
    000005A8 61C2                   MOV.L       @R12,R1
    000005AA 3100                   CMP/EQ      R0,R1
    000005AC 8B01                   BF          L877
    000005AE              L878:                             
    000005AE A001                   BRA         L875
    000005B0 2FB2                   MOV.L       R11,@R15
    000005B2              L877:                             
    000005B2 2F92                   MOV.L       R9,@R15




SH SERIES C/C++ Compiler (Ver. 6.0C)                                                                 03-Apr-2015 20:15:51  PAGE   14


SCT OFFSET   CODE       C LABEL     INSTRUCTION OPERAND    COMMENT

    000005B4              L875:                             
    000005B4 63F2                   MOV.L       @R15,R3
    000005B6 2338                   TST         R3,R3
    000005B8 8B01                   BF          L964
    000005BA A0AA                   BRA         L863
    000005BC 0009                   NOP
    000005BE              L964:                             

    000005BE D314                   MOV.L       L961+62,R3 ; _SaveSRDFile
    000005C0 430B                   JSR         @R3
    000005C2 64E3                   MOV         R14,R4
    000005C4 D213                   MOV.L       L961+66,R2 ; __slow_strcpy
    000005C6 61E3                   MOV         R14,R1
    000005C8 60A3                   MOV         R10,R0
    000005CA 420B                   JSR         @R2
    000005CC 7004                   ADD         #4,R0
    000005CE A0A0                   BRA         L863
    000005D0 0009                   NOP
    000005D2              L961:                             
    000005D2 7532                   .DATA.W     H'7532
    000005D4 7534                   .DATA.W     H'7534
    000005D6 753E                   .DATA.W     H'753E
    000005D8 <00000004>             .DATA.L     H'00000004+_setup_data
    000005DC <00000000>             .DATA.L     _PopUpWin
    000005E0 <00000000>             .DATA.L     L565
    000005E4 <00000000>             .DATA.L     _DispStr
    000005E8 <00000000>             .DATA.L     _InputString
    000005EC <00000000>             .DATA.L     L568
    000005F0 <00000000>             .DATA.L     _strcat
    000005F4 <00000000>             .DATA.L     _TestSRDFile
    000005F8 <00000000>             .DATA.L     L552
    000005FC <00000000>             .DATA.L     L553
    00000600 <00000000>             .DATA.L     _Print
    00000604 <00000000>             .DATA.L     L554
    00000608 <00000000>             .DATA.L     _key
    0000060C <00000000>             .DATA.L     _GetKey
    00000610 <00000000>             .DATA.L     _SaveSRDFile
    00000614 <00000000>             .DATA.L     __slow_strcpy
    00000618              L732:                            ; case label 
    00000618 D145                   MOV.L       L965+2,R1  ; _SelectFiles
    0000061A 410B                   JSR         @R1
    0000061C 64E3                   MOV         R14,R4
    0000061E 88FF                   CMP/EQ      #-1,R0
    00000620 8F0E                   BF/S        L883
    00000622 2F02                   MOV.L       R0,@R15
    00000624 D243                   MOV.L       L965+6,R2  ; _PopUpWin
    00000626 420B                   JSR         @R2
    00000628 E401                   MOV         #1,R4
    0000062A E504                   MOV         #4,R5
    0000062C 480B                   JSR         @R8
    0000062E E407                   MOV         #7,R4
    00000630 D441                   MOV.L       L965+10,R4 ; L596
    00000632 D342                   MOV.L       L965+14,R3 ; _Print
    00000634 430B                   JSR         @R3
    00000636 0009                   NOP
    00000638 D441                   MOV.L       L965+18,R4 ; _key
    0000063A D242                   MOV.L       L965+22,R2 ; _GetKey
    0000063C 420B                   JSR         @R2




SH SERIES C/C++ Compiler (Ver. 6.0C)                                                                 03-Apr-2015 20:15:51  PAGE   15


SCT OFFSET   CODE       C LABEL     INSTRUCTION OPERAND    COMMENT

    0000063E 0009                   NOP
    00000640              L883:                             
    00000640 60F2                   MOV.L       @R15,R0
    00000642 8801                   CMP/EQ      #1,R0
    00000644 8B12                   BF          L734
    00000646 D240                   MOV.L       L965+26,R2 ; _LoadSRDFile
    00000648 420B                   JSR         @R2
    0000064A 64E3                   MOV         R14,R4
    0000064C D33F                   MOV.L       L965+30,R3 ; __slow_strcpy
    0000064E 61E3                   MOV         R14,R1
    00000650 60A3                   MOV         R10,R0
    00000652 430B                   JSR         @R3
    00000654 7004                   ADD         #4,R0
    00000656 64A3                   MOV         R10,R4
    00000658 D23B                   MOV.L       L965+26,R2 ; _LoadSRDFile
    0000065A 420B                   JSR         @R2
    0000065C 7404                   ADD         #4,R4
    0000065E 8801                   CMP/EQ      #1,R0
    00000660 8B5A                   BF          __$EXIT$599
    00000662 D23B                   MOV.L       L965+34,R2 ; _SaveIniSRDFile
    00000664 420B                   JSR         @R2
    00000666 0009                   NOP
    00000668 A056                   BRA         __$EXIT$599
    0000066A 0009                   NOP
    0000066C              L734:                            ; case label 

    0000066C D231                   MOV.L       L965+6,R2  ; _PopUpWin
    0000066E 420B                   JSR         @R2
    00000670 E405                   MOV         #5,R4
    00000672 E50C                   MOV         #12,R5
    00000674 D338                   MOV.L       L965+42,R3 ; _DispStr
    00000676 D637                   MOV.L       L965+38,R6 ; L600
    00000678 430B                   JSR         @R3
    0000067A E430                   MOV         #48,R4
    0000067C E505                   MOV         #5,R5
    0000067E 480B                   JSR         @R8
    00000680 E407                   MOV         #7,R4
    00000682 D436                   MOV.L       L965+46,R4 ; L553
    00000684 D22D                   MOV.L       L965+14,R2 ; _Print
    00000686 420B                   JSR         @R2
    00000688 0009                   NOP
    0000068A E506                   MOV         #6,R5
    0000068C 480B                   JSR         @R8
    0000068E E407                   MOV         #7,R4
    00000690 D433                   MOV.L       L965+50,R4 ; L554
    00000692 D32A                   MOV.L       L965+14,R3 ; _Print
    00000694 430B                   JSR         @R3
    00000696 0009                   NOP
    00000698 D429                   MOV.L       L965+18,R4 ; _key
    0000069A D22A                   MOV.L       L965+22,R2 ; _GetKey
    0000069C 420B                   JSR         @R2
    0000069E 0009                   NOP
    000006A0 9345                   MOV.W       L965,R3    ; H'7539
    000006A2 62C2                   MOV.L       @R12,R2
    000006A4 3230                   CMP/EQ      R3,R2
    000006A6 8B34                   BF          L863
    000006A8 D222                   MOV.L       L965+6,R2  ; _PopUpWin
    000006AA 420B                   JSR         @R2




SH SERIES C/C++ Compiler (Ver. 6.0C)                                                                 03-Apr-2015 20:15:51  PAGE   16


SCT OFFSET   CODE       C LABEL     INSTRUCTION OPERAND    COMMENT

    000006AC E405                   MOV         #5,R4
    000006AE E50C                   MOV         #12,R5
    000006B0 D329                   MOV.L       L965+42,R3 ; _DispStr
    000006B2 D62C                   MOV.L       L965+54,R6 ; L602
    000006B4 430B                   JSR         @R3
    000006B6 E428                   MOV         #40,R4
    000006B8 E505                   MOV         #5,R5
    000006BA 480B                   JSR         @R8
    000006BC E407                   MOV         #7,R4
    000006BE D427                   MOV.L       L965+46,R4 ; L553
    000006C0 D21E                   MOV.L       L965+14,R2 ; _Print
    000006C2 420B                   JSR         @R2
    000006C4 0009                   NOP
    000006C6 E506                   MOV         #6,R5
    000006C8 480B                   JSR         @R8
    000006CA E407                   MOV         #7,R4
    000006CC D424                   MOV.L       L965+50,R4 ; L554
    000006CE D31B                   MOV.L       L965+14,R3 ; _Print
    000006D0 430B                   JSR         @R3
    000006D2 0009                   NOP
    000006D4 D41A                   MOV.L       L965+18,R4 ; _key
    000006D6 D21B                   MOV.L       L965+22,R2 ; _GetKey
    000006D8 420B                   JSR         @R2
    000006DA 0009                   NOP
    000006DC 9327                   MOV.W       L965,R3    ; H'7539
    000006DE 62C2                   MOV.L       @R12,R2
    000006E0 3230                   CMP/EQ      R3,R2
    000006E2 8B0B                   BF          L887
    000006E4 84A4                   MOV.B       @(4,R10),R0
    000006E6 2008                   TST         R0,R0
    000006E8 8B04                   BF          L888
    000006EA D11F                   MOV.L       L965+58,R1 ; _WheterSavaAS
    000006EC 410B                   JSR         @R1
    000006EE 0009                   NOP
    000006F0 A004                   BRA         L887
    000006F2 0009                   NOP
    000006F4              L888:                             
      SQX_parame     2    #include "Binrunmain.h"
      SQX_parame     3    #include "zbzfs.h"

      SQX_parame     4    #include "MyFont.h"


      SQX_parame     5    #include "cvs.h"
      SQX_parame     6    #include <stdarg.h>
      SQX_parame     7                
      SQX_parame     8                    
      SQX_parame     9    int PrintTables3(short x,short y,char * str,short sel,short lbl)
      SQX_parame    10    {
      SQX_parame    11            int len;
      SQX_parame    12            const int width = 28;
      SQX_parame    13            len = strlen(str);
      SQX_parame    14            x *= width;
      SQX_parame    15            y *= 8;
      SQX_parame    16            x += 16;
      SQX_parame    17            if (sel)
      SQX_parame    18            {
      SQX_parame    19                    Bdisp_AreaReverseVRAM(x,y,x+width-1,y+7);
      SQX_parame    20                    PrintMini(x+1+(lbl ? (width-5*len)/2:0),y+1,str,MINI_REV);
      SQX_parame    21            }




SH SERIES C/C++ Compiler (Ver. 6.0C)                                                                 03-Apr-2015 20:15:51  PAGE   17


SCT OFFSET   CODE       C LABEL     INSTRUCTION OPERAND    COMMENT

      SQX_parame    22            else
      SQX_parame    23            {
      SQX_parame    24    
      SQX_parame    25                    Bdisp_DrawLineVRAM(x+width-1,y,x+width-1,y+7);
      SQX_parame    26                    Bdisp_DrawLineVRAM(x,y+7,x+width-1,y+7);
      SQX_parame    27                    PrintMini(x+1+(lbl ? (width-5*len)/2:0),y+1,str,MINI_OVER);
      SQX_parame    28            }
      SQX_parame    29    }
      SQX_parame    30    
      SQX_parame    31    int PrintTableFormats3 (short x,short y,short sel,short lbl,char * format,...)
      SQX_parame    32    {
      SQX_parame    33            char buffer[128];
      SQX_parame    34            va_list parglist;
      SQX_parame    35            va_start(parglist, format);
      SQX_parame    36            vsprintf(buffer,format, parglist);
      SQX_parame    37            va_end(pArgList);
      SQX_parame    38            buffer[6] = 0;
      SQX_parame    39            PrintTables(x,y,buffer,sel,lbl);
      SQX_parame    40            return 0;
      SQX_parame    41    }
      SQX_parame    42    int PrintTableIndexs3 (int y,int index)
      SQX_parame    43    {
      SQX_parame    44            char buffer[8];
      SQX_parame    45            if (index<0 || index>999) return 0;
      SQX_parame    46            sprintf(buffer,"%d",index);
      SQX_parame    47            y *= 8;
      SQX_parame    48            Bdisp_AreaReverseVRAM(0,y,15,y+7);
      SQX_parame    49            PrintMini(1,y+2,buffer,MINI_REV);
      SQX_parame    50    }
      SQX_parame    51    int WhetherCover3()
      SQX_parame    52    {
      SQX_parame    53            int enter;
      SQX_parame    54            PopUpWin(5);
      SQX_parame    55            DispStr(48,12,"∏≤∏«?"); //fugai
      SQX_parame    56            locate(7,5);Print("Yes : [F1]");
      SQX_parame    57            locate(7,6);Print("No  : [F6]");
      SQX_parame    58            do{
      SQX_parame    59                    GetKey(&key);
      SQX_parame    60                    if (key==KEY_CTRL_F6 || key==KEY_CTRL_EXIT){enter =0 ;break;}
      SQX_parame    61                    else if (KEY_CTRL_F1) {enter = 1;break;}
      SQX_parame    62            }while(1);
      SQX_parame    63            return enter;
      SQX_parame    64    }
      SQX_parame    65    int WheterSavaAS3()
      SQX_parame    66    {
      SQX_parame    67            char str[13]="";
      SQX_parame    68            int suc,enter,i;
      SQX_parame    69            for (i=0;i<13 && setup_data.route_name[i] != '.';++i)
      SQX_parame    70                    str[i] = setup_data.route_name[i];
      SQX_parame    71            str[i>=13 ? 12 : i] = 0;
      SQX_parame    72            PopUpWin(4);
      SQX_parame    73            DispStr(24,8,"\xce\xc4\xbc\xfe\xc3\xfb(*.srd)");//file_name
      SQX_parame    74            do
      SQX_parame    75            {
      SQX_parame    76                    suc = InputString(24,24,str,1,8);
      SQX_parame    77                    if (suc==KEY_CTRL_EXIT) break;
      SQX_parame    78                    if (! str[0]) continue;




SH SERIES C/C++ Compiler (Ver. 6.0C)                                                                 03-Apr-2015 20:15:51  PAGE   18


SCT OFFSET   CODE       C LABEL     INSTRUCTION OPERAND    COMMENT

      SQX_parame    79            }while(suc!=KEY_CTRL_EXE);
      SQX_parame    80            if(suc!=KEY_CTRL_EXIT)
      SQX_parame    81            {
      SQX_parame    82                    enter = 1;
      SQX_parame    83                    strcat(str,".srd");
      SQX_parame    84                    if (TestSRDFile(str))
      SQX_parame    85                    {
      SQX_parame    86                            enter = WhetherCover();
      SQX_parame    87                    }
      SQX_parame    88                    if (enter)
      SQX_parame    89                    {
      SQX_parame    90                            SaveSRDFile(str);
      SQX_parame    91                            strcpy(setup_data.route_name,str);
      SQX_parame    92                    }
      SQX_parame    93            }
      SQX_parame    94    }
      SQX_parame    95    
      SQX_parame    96    int SelSetupF53()
      SQX_parame    97    {
      SQX_parame    98            index = 0;
      SQX_parame    99            need_redraw = REDRAW_PART;
      SQX_parame   100            SetMyFont(&stHz12x12,&stAsc6x12);
      SQX_parame   101            
      SQX_parame   102            while(1)
      SQX_parame   103            {
      SQX_parame   104                    if (need_redraw == REDRAW_PART)
      SQX_parame   105                    {
      SQX_parame   106                            PopUpWin(6);
      SQX_parame   107                            DrawPicture(32,9,       16,     10,     G_ICON_SAVE);   DispStr(48,8,"±£¥ÊŒ™ ");
      SQX_parame   108                            DrawPicture(32,25,      16,     10,     G_ICON_OPEN);   DispStr(48,24,"¥Úø™ ");
      SQX_parame   109                            DrawPicture(32,41,      16,     10,     G_ICON_OTHER);  DispStr(48,40,"–¬Ω® ");
      SQX_parame   110                            
      SQX_parame   111                            Bdisp_AreaReverseVRAM(14,8+16*index,112,20+index*16);
      SQX_parame   112                    }
      SQX_parame   113                    GetKey(&key);
      SQX_parame   114                    if (key==KEY_CTRL_UP)   {if(--index<0) index = 2;need_redraw = REDRAW_PART;}
      SQX_parame   115                    if (key==KEY_CTRL_DOWN) {if(++index>2) index = 0;need_redraw = REDRAW_PART;}
      SQX_parame   116                    if (key==KEY_CTRL_EXIT) break;
      SQX_parame   117                    if (key==KEY_CTRL_EXE)
      SQX_parame   118                    {
      SQX_parame   119                            char str[13]="";
      SQX_parame   120                            int suc,enter,i;
      SQX_parame   121                            switch(index)
      SQX_parame   122                            {
      SQX_parame   123                                    case 0:
      SQX_parame   124                                            
      SQX_parame   125                                            for (i=0;i<13 && setup_data.route_name[i] != '.';++i)
      SQX_parame   126                                                    str[i] = setup_data.route_name[i];
      SQX_parame   127                                            str[i>=13 ? 12 : i] = 0;
      SQX_parame   128                                            PopUpWin(4);
      SQX_parame   129                                            DispStr(24,8,"\xce\xc4\xbc\xfe\xc3\xfb(*.srd)");//file_name
      SQX_parame   130                                            do
      SQX_parame   131                                            {
      SQX_parame   132                                                    suc = InputString(24,24,str,1,8);
      SQX_parame   133                                                    if (suc==KEY_CTRL_EXIT) break;
      SQX_parame   134                                                    if (! str[0]) continue;
      SQX_parame   135                                            }while(suc!=KEY_CTRL_EXE);




SH SERIES C/C++ Compiler (Ver. 6.0C)                                                                 03-Apr-2015 20:15:51  PAGE   19


SCT OFFSET   CODE       C LABEL     INSTRUCTION OPERAND    COMMENT

      SQX_parame   136                                            if(suc!=KEY_CTRL_EXIT)
      SQX_parame   137                                            {
      SQX_parame   138                                                    enter = 1;
      SQX_parame   139                                                    strcat(str,".srd");
      SQX_parame   140                                                    if (TestSRDFile(str))
      SQX_parame   141                                                    {
      SQX_parame   142                                                            PopUpWin(5);
      SQX_parame   143                                                            DispStr(48,12,"∏≤∏«?"); //fugai
      SQX_parame   144                                                            locate(7,5);Print("Yes : [F1]");
      SQX_parame   145                                                            locate(7,6);Print("No  : [F6]");
      SQX_parame   146                                                            do{
      SQX_parame   147                                                                    GetKey(&key);
      SQX_parame   148                                                                    if (key==KEY_CTRL_F6 || key==KEY_CTRL_EXIT
                         +){enter =0 ;break;}
      SQX_parame   149                                                                    else if (KEY_CTRL_F1) {enter = 1;break;}
      SQX_parame   150                                                            }while(1);
      SQX_parame   151                                                    }
      SQX_parame   152                                                    if (enter)
      SQX_parame   153                                                    {
      SQX_parame   154                                                            SaveSRDFile(str);
      SQX_parame   155                                                            strcpy(setup_data.route_name,str);
      SQX_parame   156                                                    }
      SQX_parame   157                                            }     
      SQX_parame   158                                            break;
      SQX_parame   159                                    case 1:
      SQX_parame   160                                            suc = SelectFiles (str);
      SQX_parame   161                                            if (suc==-1)
      SQX_parame   162                                            {
      SQX_parame   163                                                    PopUpWin(1);
      SQX_parame   164                                                    locate(7,4);Print("No File!");
      SQX_parame   165                                                    GetKey(&key);
      SQX_parame   166                                            }
      SQX_parame   167                                            if(suc==1)
      SQX_parame   168                                            {
      SQX_parame   169                                                    LoadSRDFile (str);
      SQX_parame   170                                                    strcpy(setup_data.route_name,str);
      SQX_parame   171                                                    if(LoadSRDFile (setup_data.route_name)==1)
      SQX_parame   172                                                    SaveIniSRDFile();
      SQX_parame   173                                                    goto EXIT;
      SQX_parame   174                                            }
      SQX_parame   175                                            
      SQX_parame   176                                    case 2:
      SQX_parame   177                                            PopUpWin(5);
      SQX_parame   178                                        DispStr(48,12,"–¬Ω®?"); 
      SQX_parame   179                                        locate(7,5);Print("Yes : [F1]");
      SQX_parame   180                                            locate(7,6);Print("No  : [F6]");
      SQX_parame   181                                            GetKey(&key);
      SQX_parame   182                                            if (key==KEY_CTRL_F1){
      SQX_parame   183                                                    PopUpWin(5);
      SQX_parame   184                                            DispStr(40,12,"±£¥Ê ˝æ›?"); 
      SQX_parame   185                                            locate(7,5);Print("Yes : [F1]");
      SQX_parame   186                                                locate(7,6);Print("No  : [F6]");
      SQX_parame   187                                                GetKey(&key);
      SQX_parame   188                                                    if(key==KEY_CTRL_F1)
      SQX_parame   189                                                    {
      SQX_parame   190                                                            if(setup_data.route_name[0]==0)
      SQX_parame   191                                                {




SH SERIES C/C++ Compiler (Ver. 6.0C)                                                                 03-Apr-2015 20:15:51  PAGE   20


SCT OFFSET   CODE       C LABEL     INSTRUCTION OPERAND    COMMENT

      SQX_parame   192                                                        WheterSavaAS();
      SQX_parame   193                                                }
      SQX_parame   194                                                else
      SQX_parame   195                                                {
      SQX_parame   196                                                        SaveSRDFile(setup_data.route_name);
      SQX_parame   197                                                }
      SQX_parame   198                                                    }                                               
      SQX_parame   199                                                    setup_data.route_name[0]=0;
      SQX_parame   200                                            route_initial(&route);
      SQX_parame   201                                route_push_back(&route);
      SQX_parame   202                                                    goto EXIT;
      SQX_parame   203                                    }   
      SQX_parame   204                                        break;
      SQX_parame   205                                            
      SQX_parame   206                                    default:break;
      SQX_parame   207                            }
      SQX_parame   208                            need_redraw = REDRAW_PART;
      SQX_parame   209                    }
      SQX_parame   210            }
      SQX_parame   211            EXIT:
      SQX_parame   212            return 0;
      SQX_parame   213    }
      SQX_parame   214    
      SQX_parame   215    
      SQX_parame   216    int RunF5_Calc3()
      SQX_parame   217    {
      SQX_parame   218            
      SQX_parame   219            char * table_label[]= {"DH","QDZH","ZDZH","X","Y","FWJ","ZX","QDBJ","ZDBJ"};
      SQX_parame   220            char * icons[]          = {"Set","Add","Ins","DelL","DelA"};
      SQX_parame   221            char * ch_text[]        = {"\xb5\xe3\xc3\xfb",
      SQX_parame   222                                    "∆µ„◊Æ∫≈",
      SQX_parame   223                                                            "÷’µ„◊Æ∫≈",
      SQX_parame   224                                                            "X◊¯±Í ", 
      SQX_parame   225                                                            "Y◊¯±Í ",
      SQX_parame   226                                                            "∑ΩŒªΩ« ",
      SQX_parame   227                                                            "◊™œÚ ",
      SQX_parame   228                                                            "∆µ„∞Îæ∂",
      SQX_parame   229                                                            "÷’µ„∞Îæ∂"};
      SQX_parame   230            int x = 0,y = 0,i,j,t;
      SQX_parame   231            int left = 0,top = 0;
      SQX_parame   232            int refresh = REDRAW_ALL;
      SQX_parame   233            int enter,suc;
      SQX_parame   234            char str[13]="";
      SQX_parame   235            char c;
      SQX_parame   236            SetMyFont(&stHz12x12,&stAsc6x12);
      SQX_parame   237       
      SQX_parame   238            while(1){
      SQX_parame   239                    if (refresh==REDRAW_ALL){
      SQX_parame   240                            Bdisp_AllClr_VRAM();
      SQX_parame   241                            for (i=0;i<4;++i)
      SQX_parame   242                                 PrintTables(i,0,table_label[left+i],1,1);
      SQX_parame   243                            t = route.size<= 1 ? 2 : 5;
      SQX_parame   244                            for (i=0;i< t;++i)
      SQX_parame   245                                    PrintIcon(i,icons[i],0);
      SQX_parame   246                            PrintIcon(5,"?",0);
      SQX_parame   247                            refresh = REDRAW_PART;
      SQX_parame   248                    }




SH SERIES C/C++ Compiler (Ver. 6.0C)                                                                 03-Apr-2015 20:15:51  PAGE   21


SCT OFFSET   CODE       C LABEL     INSTRUCTION OPERAND    COMMENT

      SQX_parame   249                    if (refresh==REDRAW_PART){
      SQX_parame   250                            double * sd;
      SQX_parame   251                            for (i=top;i<top+4 && i<route.size;++i){
      SQX_parame   252                                    sd =  & (route.set[i].qd_zh);
      SQX_parame   253                                    for (j=(left==0 ? 1:0);j<4;++j){
      SQX_parame   254                                            //if (i==0 && j+left>2)
      SQX_parame   255                                                    //PrintTable(j,i+1-top,"",y==i && x-left==j,0);
      SQX_parame   256                                            //else
      SQX_parame   257                                                    PrintTableFormats(j,i+1-top,y==i && x-left==j,0,"%lf",sd[j
                         ++left-1]);
      SQX_parame   258                                    }
      SQX_parame   259                                    if (left==0)
      SQX_parame   260                                            PrintTableFormats(0,i+1-top,y==i && x-left==0,0,"%s",route.set[i].
                         +name);
      SQX_parame   261                                    PrintTableIndexs(i-top+1,i);
      SQX_parame   262                            }
      SQX_parame   263                            if(x>0){
      SQX_parame   264                                    //if (!(y==0 && x>2)){
      SQX_parame   265                                            sd =  & (route.set[y].qd_zh);
      SQX_parame   266                                            DispStr(0,42,ch_text[x]);
      SQX_parame   267                                            PrintFloat(sd[x-1],49,42,0,setup_data.point);
      SQX_parame   268                                    //}
      SQX_parame   269                            }else{
      SQX_parame   270                                    DispStr(0,42,ch_text[x]);
      SQX_parame   271                                    PrintXY(51,44,route.set[y].name,0);
      SQX_parame   272                            }
      SQX_parame   273                            refresh = 0;
      SQX_parame   274                    }
      SQX_parame   275                    GetKey(&key);
      SQX_parame   276                    switch (key){
      SQX_parame   277                    case KEY_CTRL_UP:
      SQX_parame   278                            y--;refresh = REDRAW_ALL;break;
      SQX_parame   279                    case KEY_CTRL_DOWN:
      SQX_parame   280                            y++;refresh = REDRAW_ALL;break;
      SQX_parame   281                    case KEY_CTRL_LEFT:
      SQX_parame   282                            x--;refresh = REDRAW_ALL;break;
      SQX_parame   283                    case KEY_CTRL_RIGHT:
      SQX_parame   284                            x++;refresh = REDRAW_ALL;break;
      SQX_parame   285                    case KEY_CTRL_EXIT:
      SQX_parame   286                        PopUpWin(5);
      SQX_parame   287                            DispStr(48,12,"±£¥Ê?"); 
      SQX_parame   288                            locate(7,5);Print("Yes : [F1]");
      SQX_parame   289                            locate(7,6);Print("No  : [F6]");
      SQX_parame   290                            do{
      SQX_parame   291                                    GetKey(&key);
      SQX_parame   292                                    if (key==KEY_CTRL_F6 || key==KEY_CTRL_EXIT){enter =0 ;break;}
      SQX_parame   293                                    else if (KEY_CTRL_F1) {enter = 1;break;}
      SQX_parame   294                            }while(1);
      SQX_parame   295                            if(enter)
      SQX_parame   296                            {
      SQX_parame   297                                    if(setup_data.route_name[0]==0)
      SQX_parame   298                                    {
      SQX_parame   299                                            WheterSavaAS();
      SQX_parame   300                                    }
      SQX_parame   301                                    else
      SQX_parame   302                                    {
      SQX_parame   303                                            SaveSRDFile(setup_data.route_name);




SH SERIES C/C++ Compiler (Ver. 6.0C)                                                                 03-Apr-2015 20:15:51  PAGE   22


SCT OFFSET   CODE       C LABEL     INSTRUCTION OPERAND    COMMENT

      SQX_parame   304                                    }
      SQX_parame   305                            }
      SQX_parame   306                            return 0 ;
      SQX_parame   307                    case KEY_CTRL_F1:                                       /* Set */
      SQX_parame   308                            refresh = REDRAW_ALL;
      SQX_parame   309                            SelSetupF5();
      SQX_parame   310                            break;
      SQX_parame   311                    case KEY_CTRL_F2:                                       /* Add */
      SQX_parame   312                            route_push_back (&route);
      SQX_parame   313                            y = route.size - 1;
      SQX_parame   314                            refresh = REDRAW_ALL;
      SQX_parame   315                            break;
      SQX_parame   316                    case KEY_CTRL_F3:                                       /* ins */
      SQX_parame   317                            //if (y==0) break;
      SQX_parame   318                            route_insert (&route,y);
      SQX_parame   319                            y++;
      SQX_parame   320                            refresh = REDRAW_ALL;
      SQX_parame   321                            break;
      SQX_parame   322                    case KEY_CTRL_F4:                                       /* Del a point */
      SQX_parame   323                            //if (y==0) break;
      SQX_parame   324                            refresh = REDRAW_ALL;
      SQX_parame   325                            PopUpWin(4);DispStr(25,10,"…æ ≥˝ “ª ––?");
      SQX_parame   326                            locate(3,5);Print("[F1]Yes   [F6]No");
      SQX_parame   327                            GetKey(&key);
      SQX_parame   328                            if (key==KEY_CTRL_F1){
      SQX_parame   329                                    route_del(&route,y);y--;
      SQX_parame   330                            }
      SQX_parame   331                            break;
      SQX_parame   332                            
      SQX_parame   333                     case KEY_CTRL_F5:                                      /* Del All */
      SQX_parame   334                            refresh = REDRAW_ALL;
      SQX_parame   335                            PopUpWin(4);DispStr(25,10,"«Â ø’ À˘ ”– ?");
      SQX_parame   336                            locate(3,5);Print("[F1]Yes   [F6]No");
      SQX_parame   337                            GetKey(&key);
      SQX_parame   338                            if (key==KEY_CTRL_F1){
      SQX_parame   339                                    route_initial(&route);
      SQX_parame   340                        route_push_back(&route);
      SQX_parame   341                            }
      SQX_parame   342                            break;
      SQX_parame   343    
      SQX_parame   344             case KEY_CTRL_F6:
      SQX_parame   345                        refresh = REDRAW_ALL;
      SQX_parame   346                            PopUpWin(4);
      SQX_parame   347                            //PrintfXY (15,30,0,"%.3f",route.set[0].xy_qr);  
      SQX_parame   348                            //PrintfXY (70,30,0,"%.3f",route.set[0].xy_zr);  
      SQX_parame   349                            DispStr(15,10,"œﬂ¬∑√˚≥∆");
      SQX_parame   350                            if(setup_data.route_name[0]==0)
      SQX_parame   351                            {
      SQX_parame   352                             DispStr(25,27,"«Î±£¥Êœﬂ¬∑Œƒº˛ ");
      SQX_parame   353                            }
      SQX_parame   354                             //else
      SQX_parame   355                            //{
      SQX_parame   356                 //DispStr(25,27,setup_data.route_name);
      SQX_parame   357                            //}
      SQX_parame   358                            GetKey(&key);
      SQX_parame   359                    break;  
      SQX_parame   360                    default:                                                        /*other things*/




SH SERIES C/C++ Compiler (Ver. 6.0C)                                                                 03-Apr-2015 20:15:51  PAGE   23


SCT OFFSET   CODE       C LABEL     INSTRUCTION OPERAND    COMMENT

      SQX_parame   361                            if (x>0 && (c=GetPressNumChar(key))!=0){
      SQX_parame   362                                    char buffer[14];
      SQX_parame   363                                    int r;
      SQX_parame   364                                    //if (y==0 && x > 2)break;
      SQX_parame   365                                    buffer[0] = c;
      SQX_parame   366                                    buffer[1] = '\0';
      SQX_parame   367                                    r = InputString(49,42,buffer,0,12);
      SQX_parame   368                                    if (r!=KEY_CTRL_EXIT){
      SQX_parame   369                                            double * sd;
      SQX_parame   370                                            sd =  (double*)&(route.set[y].qd_zh);
      SQX_parame   371                                            sd[x-1] = atof(buffer);
      SQX_parame   372                                            switch(r){
      SQX_parame   373                                            case KEY_CTRL_UP:       y--;break;
      SQX_parame   374                                            case KEY_CTRL_DOWN:     y++;break;
      SQX_parame   375                                            case KEY_CTRL_EXE:      x++;break;
      SQX_parame   376                                            }
      SQX_parame   377                                    }
      SQX_parame   378                                    refresh = REDRAW_ALL;
      SQX_parame   379                            }
      SQX_parame   380                            else if (x==0 && (c=GetPressChar(key))!=0){
      SQX_parame   381                                    char buffer[14];
      SQX_parame   382                                    int r;
      SQX_parame   383                                    buffer[0] = c;
      SQX_parame   384                                    buffer[1] = '\0';
      SQX_parame   385                                    r = InputString(49,42,buffer,1,12);
      SQX_parame   386                                    if (r!=KEY_CTRL_EXIT){
      SQX_parame   387                                            strncpy(route.set[y].name,buffer,12);
      SQX_parame   388                                            switch(r){
      SQX_parame   389                                            case KEY_CTRL_UP:       y--;break;
      SQX_parame   390                                            case KEY_CTRL_DOWN:     y++;break;
      SQX_parame   391                                            case KEY_CTRL_EXE:      x++;break;
      SQX_parame   392                                            }
      SQX_parame   393                                    }
      SQX_parame   394                                    refresh = REDRAW_ALL;
      SQX_parame   395                            }
      SQX_parame   396                            break;
      SQX_parame   397                    }
      SQX_parame   398                    if (x<0) x = 8,y--;
      SQX_parame   399                    if (x>8) x = 0,y++;
      SQX_parame   400                    if (y<0) y = 0;
      SQX_parame   401                    if (y>=route.size) y = route.size - 1;
      SQX_parame   402                    if (y>top + 3) top = y - 3;
      SQX_parame   403                    if (y<top) top = y;
      SQX_parame   404                    if (x>left +3) left = x - 3;
      SQX_parame   405                    if (x<left) left = x;
      SQX_parame   406            }
      SQX_parame   407    }
    000006F4 D21D                   MOV.L       L965+62,R2 ; _SaveSRDFile
    000006F6 64A3                   MOV         R10,R4
    000006F8 420B                   JSR         @R2
    000006FA 7404                   ADD         #4,R4
    000006FC              L887:                             
    000006FC D41C                   MOV.L       L965+66,R4 ; _route
    000006FE 60B3                   MOV         R11,R0
    00000700 D31C                   MOV.L       L965+70,R3 ; _route_initial
    00000702 430B                   JSR         @R3
    00000704 80A4                   MOV.B       R0,@(4,R10)




SH SERIES C/C++ Compiler (Ver. 6.0C)                                                                 03-Apr-2015 20:15:51  PAGE   24


SCT OFFSET   CODE       C LABEL     INSTRUCTION OPERAND    COMMENT

    00000706 D41A                   MOV.L       L965+66,R4 ; _route
    00000708 D21B                   MOV.L       L965+74,R2 ; _route_push_back
    0000070A 420B                   JSR         @R2
    0000070C 0009                   NOP
    0000070E A003                   BRA         __$EXIT$599
    00000710 0009                   NOP
    00000712              L863:                             
    00000712 D21A                   MOV.L       L965+78,R2 ; _need_redraw
    00000714 AE40                   BRA         L854
    00000716 2292                   MOV.L       R9,@R2
    00000718              __$EXIT$599:                     ; label: EXIT
    00000718 E000                   MOV         #0,R0
    0000071A 7F18                   ADD         #24,R15
    0000071C 4F26                   LDS.L       @R15+,PR
    0000071E 68F6                   MOV.L       @R15+,R8
    00000720 69F6                   MOV.L       @R15+,R9
    00000722 6AF6                   MOV.L       @R15+,R10
    00000724 6BF6                   MOV.L       @R15+,R11
    00000726 6CF6                   MOV.L       @R15+,R12
    00000728 6DF6                   MOV.L       @R15+,R13
    0000072A 000B                   RTS
    0000072C 6EF6                   MOV.L       @R15+,R14
    0000072E              L965:                             
    0000072E 7539                   .DATA.W     H'7539
    00000730 <00000000>             .DATA.L     _SelectFiles
    00000734 <00000000>             .DATA.L     _PopUpWin
    00000738 <00000000>             .DATA.L     L596
    0000073C <00000000>             .DATA.L     _Print
    00000740 <00000000>             .DATA.L     _key
    00000744 <00000000>             .DATA.L     _GetKey
    00000748 <00000000>             .DATA.L     _LoadSRDFile
    0000074C <00000000>             .DATA.L     __slow_strcpy
    00000750 <00000000>             .DATA.L     _SaveIniSRDFile
    00000754 <00000000>             .DATA.L     L600
    00000758 <00000000>             .DATA.L     _DispStr
    0000075C <00000000>             .DATA.L     L553
    00000760 <00000000>             .DATA.L     L554
    00000764 <00000000>             .DATA.L     L602
    00000768 <00000000>             .DATA.L     _WheterSavaAS
    0000076C <00000000>             .DATA.L     _SaveSRDFile
    00000770 <00000000>             .DATA.L     _route
    00000774 <00000000>             .DATA.L     _route_initial
    00000778 <00000000>             .DATA.L     _route_push_back
    0000077C <00000000>             .DATA.L     _need_redraw
    00000780              _RunF5_Calc3:                    ; function: RunF5_Calc3
                                                           ; frame size=228
                                                           ; used runtime library name:
                                                           ; __slow_mvn, __quick_odd_mvn
    00000780 2FE6                   MOV.L       R14,@-R15
    00000782 2FD6                   MOV.L       R13,@-R15
    00000784 2FC6                   MOV.L       R12,@-R15
    00000786 ED00                   MOV         #0,R13
    00000788 918C                   MOV.W       L966+2,R1  ; H'0090
    0000078A 2FB6                   MOV.L       R11,@-R15
    0000078C 2FA6                   MOV.L       R10,@-R15
    0000078E 2F96                   MOV.L       R9,@-R15
    00000790 2F86                   MOV.L       R8,@-R15




SH SERIES C/C++ Compiler (Ver. 6.0C)                                                                 03-Apr-2015 20:15:51  PAGE   25


SCT OFFSET   CODE       C LABEL     INSTRUCTION OPERAND    COMMENT

    00000792 4F22                   STS.L       PR,@-R15
    00000794 4F12                   STS.L       MACL,@-R15
    00000796 9084                   MOV.W       L966,R0    ; H'FF4C
    00000798 DB43                   MOV.L       L966+6,R11 ; _route
    0000079A 3F0C                   ADD         R0,R15
    0000079C D243                   MOV.L       L966+10,R2 ; L610
    0000079E 31FC                   ADD         R15,R1
    000007A0 D343                   MOV.L       L966+14,R3 ; __quick_odd_mvn
    000007A2 430B                   JSR         @R3
    000007A4 E024                   MOV         #36,R0
    000007A6 61F3                   MOV         R15,R1
    000007A8 D242                   MOV.L       L966+18,R2 ; L621
    000007AA 717C                   ADD         #124,R1
    000007AC D340                   MOV.L       L966+14,R3 ; __quick_odd_mvn
    000007AE 430B                   JSR         @R3
    000007B0 E014                   MOV         #20,R0
    000007B2 61F3                   MOV         R15,R1
    000007B4 D240                   MOV.L       L966+22,R2 ; L628
    000007B6 7158                   ADD         #88,R1
    000007B8 D33D                   MOV.L       L966+14,R3 ; __quick_odd_mvn
    000007BA 430B                   JSR         @R3
    000007BC E024                   MOV         #36,R0
    000007BE 6CD3                   MOV         R13,R12
    000007C0 1FD1                   MOV.L       R13,@(4,R15)
    000007C2 EA02                   MOV         #2,R10
    000007C4 D23D                   MOV.L       L966+26,R2 ; L649
    000007C6 6ED3                   MOV         R13,R14
    000007C8 D33D                   MOV.L       L966+30,R3 ; __slow_mvn
    000007CA 68D3                   MOV         R13,R8
    000007CC 61F3                   MOV         R15,R1
    000007CE 7148                   ADD         #72,R1
    000007D0 430B                   JSR         @R3
    000007D2 E00D                   MOV         #13,R0
    000007D4 D53B                   MOV.L       L966+34,R5 ; _stAsc6x12
    000007D6 D43C                   MOV.L       L966+38,R4 ; _stHz12x12
    000007D8 D13C                   MOV.L       L966+42,R1 ; _SetMyFont
    000007DA 410B                   JSR         @R1
    000007DC 0009                   NOP
    000007DE 63F3                   MOV         R15,R3
    000007E0 7338                   ADD         #56,R3
    000007E2 62F3                   MOV         R15,R2
    000007E4 1F3C                   MOV.L       R3,@(48,R15)
    000007E6 7239                   ADD         #57,R2
    000007E8 1F2B                   MOV.L       R2,@(44,R15)
    000007EA 63F3                   MOV         R15,R3
    000007EC 7338                   ADD         #56,R3
    000007EE 62F3                   MOV         R15,R2
    000007F0 1F39                   MOV.L       R3,@(36,R15)
    000007F2 7239                   ADD         #57,R2
    000007F4 1F2D                   MOV.L       R2,@(52,R15)
    000007F6              L892:                             
    000007F6 60A3                   MOV         R10,R0
    000007F8 8802                   CMP/EQ      #2,R0
    000007FA 8B35                   BF          L893
    000007FC DA34                   MOV.L       L966+46,R10; _Bdisp_AllClr_VRAM
    000007FE 4A0B                   JSR         @R10
    00000800 0009                   NOP




SH SERIES C/C++ Compiler (Ver. 6.0C)                                                                 03-Apr-2015 20:15:51  PAGE   26


SCT OFFSET   CODE       C LABEL     INSTRUCTION OPERAND    COMMENT

    00000802 A010                   BRA         L894
    00000804 6AD3                   MOV         R13,R10
    00000806              L895:                             
    00000806 E201                   MOV         #1,R2
    00000808 934D                   MOV.W       L966+4,R3  ; H'0094
    0000080A E500                   MOV         #0,R5
    0000080C D931                   MOV.L       L966+50,R9 ; _PrintTables
    0000080E 66A3                   MOV         R10,R6
    00000810 2F26                   MOV.L       R2,@-R15
    00000812 6723                   MOV         R2,R7
    00000814 368C                   ADD         R8,R6
    00000816 4608                   SHLL2       R6
    00000818 33FC                   ADD         R15,R3
    0000081A 363C                   ADD         R3,R6
    0000081C 6662                   MOV.L       @R6,R6
    0000081E 490B                   JSR         @R9
    00000820 64A3                   MOV         R10,R4
    00000822 7F04                   ADD         #4,R15
    00000824 7A01                   ADD         #1,R10
    00000826              L894:                             
    00000826 E204                   MOV         #4,R2
    00000828 3A23                   CMP/GE      R2,R10
    0000082A 8BEC                   BF          L895
    0000082C 51B9                   MOV.L       @(36,R11),R1
    0000082E E301                   MOV         #1,R3
    00000830 3137                   CMP/GT      R3,R1
    00000832 8901                   BT          L896
    00000834 A001                   BRA         L897
    00000836 E102                   MOV         #2,R1
    00000838              L896:                             
    00000838 E105                   MOV         #5,R1
    0000083A              L897:                             
    0000083A 4115                   CMP/PL      R1
    0000083C 2F12                   MOV.L       R1,@R15
    0000083E D926                   MOV.L       L966+54,R9 ; _PrintIcon
    00000840 8F0D                   BF/S        L898
    00000842 6AD3                   MOV         R13,R10
    00000844              L899:                             
    00000844 E600                   MOV         #0,R6
    00000846 65A3                   MOV         R10,R5
    00000848 4508                   SHLL2       R5
    0000084A 63F3                   MOV         R15,R3
    0000084C 737C                   ADD         #124,R3
    0000084E 353C                   ADD         R3,R5
    00000850 6552                   MOV.L       @R5,R5
    00000852 490B                   JSR         @R9
    00000854 64A3                   MOV         R10,R4
    00000856 7A01                   ADD         #1,R10
    00000858 62F2                   MOV.L       @R15,R2
    0000085A 3A23                   CMP/GE      R2,R10
    0000085C 8BF2                   BF          L899
    0000085E              L898:                             
    0000085E E600                   MOV         #0,R6
    00000860 D51E                   MOV.L       L966+58,R5 ; L653
    00000862 490B                   JSR         @R9
    00000864 E405                   MOV         #5,R4
    00000866 EA01                   MOV         #1,R10




SH SERIES C/C++ Compiler (Ver. 6.0C)                                                                 03-Apr-2015 20:15:51  PAGE   27


SCT OFFSET   CODE       C LABEL     INSTRUCTION OPERAND    COMMENT

    00000868              L893:                             
    00000868 E24C                   MOV         #76,R2
    0000086A 63C3                   MOV         R12,R3
    0000086C 0E27                   MUL.L       R2,R14
    0000086E 60A3                   MOV         R10,R0
    00000870 021A                   STS         MACL,R2
    00000872 73FF                   ADD         #-1,R3
    00000874 1F23                   MOV.L       R2,@(12,R15)
    00000876 4308                   SHLL2       R3
    00000878 4300                   SHLL        R3
    0000087A 8801                   CMP/EQ      #1,R0
    0000087C 1F34                   MOV.L       R3,@(16,R15)
    0000087E 8901                   BT          L967
    00000880 A0C4                   BRA         L900
    00000882 0009                   NOP
    00000884              L967:                             
    00000884 5AF1                   MOV.L       @(4,R15),R10
    00000886 61C3                   MOV         R12,R1
    00000888 3188                   SUB         R8,R1
    0000088A 2888                   TST         R8,R8
    0000088C 1F15                   MOV.L       R1,@(20,R15)
    0000088E 0029                   MOVT        R0
    00000890 53F1                   MOV.L       @(4,R15),R3
    00000892 7304                   ADD         #4,R3
    00000894 1F38                   MOV.L       R3,@(32,R15)
    00000896 1F07                   MOV.L       R0,@(28,R15)
    00000898 50F5                   MOV.L       @(20,R15),R0
    0000089A 2008                   TST         R0,R0
    0000089C 0029                   MOVT        R0
    0000089E A071                   BRA         L903
    000008A0 1F06                   MOV.L       R0,@(24,R15)
    000008A2              L966:                             
    000008A2 FF4C                   .DATA.W     H'FF4C
    000008A4 0090                   .DATA.W     H'0090
    000008A6 0094                   .DATA.W     H'0094
    000008A8 <00000000>             .DATA.L     _route
    000008AC <00000000>             .DATA.L     L610
    000008B0 <00000000>             .DATA.L     __quick_odd_mvn
    000008B4 <00000000>             .DATA.L     L621
    000008B8 <00000000>             .DATA.L     L628
    000008BC <00000000>             .DATA.L     L649
    000008C0 <00000000>             .DATA.L     __slow_mvn
    000008C4 <00000000>             .DATA.L     _stAsc6x12
    000008C8 <00000000>             .DATA.L     _stHz12x12
    000008CC <00000000>             .DATA.L     _SetMyFont
    000008D0 <00000000>             .DATA.L     _Bdisp_AllClr_VRAM
    000008D4 <00000000>             .DATA.L     _PrintTables
    000008D8 <00000000>             .DATA.L     _PrintIcon
    000008DC <00000000>             .DATA.L     L653
    000008E0              L904:                             
    000008E0 52B8                   MOV.L       @(32,R11),R2
    000008E2 E34C                   MOV         #76,R3
    000008E4 0A37                   MUL.L       R3,R10
    000008E6 031A                   STS         MACL,R3
    000008E8 332C                   ADD         R2,R3
    000008EA 6133                   MOV         R3,R1
    000008EC 710C                   ADD         #12,R1




SH SERIES C/C++ Compiler (Ver. 6.0C)                                                                 03-Apr-2015 20:15:51  PAGE   28


SCT OFFSET   CODE       C LABEL     INSTRUCTION OPERAND    COMMENT

    000008EE 1F1A                   MOV.L       R1,@(40,R15)
    000008F0 53F7                   MOV.L       @(28,R15),R3
    000008F2 2338                   TST         R3,R3
    000008F4 8901                   BT          L905
    000008F6 A001                   BRA         L906
    000008F8 E901                   MOV         #1,R9
    000008FA              L905:                             
    000008FA E900                   MOV         #0,R9
    000008FC              L906:                             
    000008FC 53F1                   MOV.L       @(4,R15),R3
    000008FE 62A3                   MOV         R10,R2
    00000900 3238                   SUB         R3,R2
    00000902 7201                   ADD         #1,R2
    00000904 E104                   MOV         #4,R1
    00000906 3913                   CMP/GE      R1,R9
    00000908 8D1F                   BT/S        L907
    0000090A 2F22                   MOV.L       R2,@R15
    0000090C              L908:                             
    0000090C 53FA                   MOV.L       @(40,R15),R3
    0000090E 6293                   MOV         R9,R2
    00000910 D02F                   MOV.L       L968,R0    ; L659
    00000912 328C                   ADD         R8,R2
    00000914 72FF                   ADD         #-1,R2
    00000916 4208                   SHLL2       R2
    00000918 4200                   SHLL        R2
    0000091A 323C                   ADD         R3,R2
    0000091C 5121                   MOV.L       @(4,R2),R1
    0000091E 3EA0                   CMP/EQ      R10,R14
    00000920 2F16                   MOV.L       R1,@-R15
    00000922 6122                   MOV.L       @R2,R1
    00000924 2F16                   MOV.L       R1,@-R15
    00000926 2F06                   MOV.L       R0,@-R15
    00000928 8F05                   BF/S        L909
    0000092A E700                   MOV         #0,R7
    0000092C 52F8                   MOV.L       @(32,R15),R2
    0000092E 3290                   CMP/EQ      R9,R2
    00000930 8B01                   BF          L909
    00000932 A001                   BRA         L910
    00000934 E601                   MOV         #1,R6
    00000936              L909:                             
    00000936 E600                   MOV         #0,R6
    00000938              L910:                             
    00000938 55F3                   MOV.L       @(12,R15),R5
    0000093A D326                   MOV.L       L968+4,R3  ; _PrintTableFormats
    0000093C 430B                   JSR         @R3
    0000093E 6493                   MOV         R9,R4
    00000940 7901                   ADD         #1,R9
    00000942 E204                   MOV         #4,R2
    00000944 3923                   CMP/GE      R2,R9
    00000946 8FE1                   BF/S        L908
    00000948 7F0C                   ADD         #12,R15
    0000094A              L907:                             
    0000094A 2888                   TST         R8,R8
    0000094C 8B15                   BF          L911
    0000094E E34C                   MOV         #76,R3
    00000950 52B8                   MOV.L       @(32,R11),R2
    00000952 3EA0                   CMP/EQ      R10,R14




SH SERIES C/C++ Compiler (Ver. 6.0C)                                                                 03-Apr-2015 20:15:51  PAGE   29


SCT OFFSET   CODE       C LABEL     INSTRUCTION OPERAND    COMMENT

    00000954 D920                   MOV.L       L968+8,R9  ; L660
    00000956 0A37                   MUL.L       R3,R10
    00000958 031A                   STS         MACL,R3
    0000095A 332C                   ADD         R2,R3
    0000095C 2F36                   MOV.L       R3,@-R15
    0000095E 2F96                   MOV.L       R9,@-R15
    00000960 8F05                   BF/S        L912
    00000962 E700                   MOV         #0,R7
    00000964 53F8                   MOV.L       @(32,R15),R3
    00000966 2338                   TST         R3,R3
    00000968 8901                   BT          L912
    0000096A A001                   BRA         L913
    0000096C E601                   MOV         #1,R6
    0000096E              L912:                             
    0000096E E600                   MOV         #0,R6
    00000970              L913:                             
    00000970 55F2                   MOV.L       @(8,R15),R5
    00000972 D318                   MOV.L       L968+4,R3  ; _PrintTableFormats
    00000974 430B                   JSR         @R3
    00000976 E400                   MOV         #0,R4
    00000978 7F08                   ADD         #8,R15
    0000097A              L911:                             
    0000097A 65A3                   MOV         R10,R5
    0000097C D917                   MOV.L       L968+12,R9 ; _PrintTableIndexs
    0000097E 490B                   JSR         @R9
    00000980 64F2                   MOV.L       @R15,R4
    00000982 7A01                   ADD         #1,R10
    00000984              L903:                             
    00000984 53F8                   MOV.L       @(32,R15),R3
    00000986 3A33                   CMP/GE      R3,R10
    00000988 8903                   BT          L914
    0000098A D215                   MOV.L       L968+16,R2 ; H'00000024+_route
    0000098C 6122                   MOV.L       @R2,R1
    0000098E 3A13                   CMP/GE      R1,R10
    00000990 8BA6                   BF          L904
    00000992              L914:                             
    00000992 6AC3                   MOV         R12,R10
    00000994 4A08                   SHLL2       R10
    00000996 63F3                   MOV         R15,R3
    00000998 7358                   ADD         #88,R3
    0000099A 4C15                   CMP/PL      R12
    0000099C 8F28                   BF/S        L915
    0000099E 3A3C                   ADD         R3,R10
    000009A0 52F3                   MOV.L       @(12,R15),R2
    000009A2 E52A                   MOV         #42,R5
    000009A4 59B8                   MOV.L       @(32,R11),R9
    000009A6 392C                   ADD         R2,R9
    000009A8 66A2                   MOV.L       @R10,R6
    000009AA 790C                   ADD         #12,R9
    000009AC D20D                   MOV.L       L968+20,R2 ; _DispStr
    000009AE 420B                   JSR         @R2
    000009B0 E400                   MOV         #0,R4
    000009B2 E600                   MOV         #0,R6
    000009B4 DA0C                   MOV.L       L968+24,R10; _PrintFloat
    000009B6 E52A                   MOV         #42,R5
    000009B8 53F4                   MOV.L       @(16,R15),R3
    000009BA 393C                   ADD         R3,R9




SH SERIES C/C++ Compiler (Ver. 6.0C)                                                                 03-Apr-2015 20:15:51  PAGE   30


SCT OFFSET   CODE       C LABEL     INSTRUCTION OPERAND    COMMENT

    000009BC 5291                   MOV.L       @(4,R9),R2
    000009BE 2F26                   MOV.L       R2,@-R15
    000009C0 6292                   MOV.L       @R9,R2
    000009C2 2F26                   MOV.L       R2,@-R15
    000009C4 D109                   MOV.L       L968+28,R1 ; _setup_data
    000009C6 6712                   MOV.L       @R1,R7
    000009C8 4A0B                   JSR         @R10
    000009CA E431                   MOV         #49,R4
    000009CC A01D                   BRA         L916
    000009CE 7F08                   ADD         #8,R15
    000009D0              L968:                             
    000009D0 <00000000>             .DATA.L     L659
    000009D4 <00000000>             .DATA.L     _PrintTableFormats
    000009D8 <00000000>             .DATA.L     L660
    000009DC <00000000>             .DATA.L     _PrintTableIndexs
    000009E0 <00000024>             .DATA.L     H'00000024+_route
    000009E4 <00000000>             .DATA.L     _DispStr
    000009E8 <00000000>             .DATA.L     _PrintFloat
    000009EC <00000000>             .DATA.L     _setup_data
    000009F0              L915:                             
    000009F0 66A2                   MOV.L       @R10,R6
    000009F2 E52A                   MOV         #42,R5
    000009F4 D238                   MOV.L       L969+22,R2 ; _DispStr
    000009F6 420B                   JSR         @R2
    000009F8 E400                   MOV         #0,R4
    000009FA E700                   MOV         #0,R7
    000009FC 53F3                   MOV.L       @(12,R15),R3
    000009FE E52C                   MOV         #44,R5
    00000A00 DA36                   MOV.L       L969+26,R10; _PrintXY
    00000A02 56B8                   MOV.L       @(32,R11),R6
    00000A04 363C                   ADD         R3,R6
    00000A06 4A0B                   JSR         @R10
    00000A08 E433                   MOV         #51,R4
    00000A0A              L916:                             
    00000A0A 6AD3                   MOV         R13,R10
    00000A0C              L900:                             
    00000A0C D434                   MOV.L       L969+30,R4 ; _key
    00000A0E D335                   MOV.L       L969+34,R3 ; _GetKey
    00000A10 430B                   JSR         @R3
    00000A12 0009                   NOP
    00000A14 D932                   MOV.L       L969+30,R9 ; _key
    00000A16 6092                   MOV.L       @R9,R0
    00000A18 9153                   MOV.W       L969,R1    ; H'7542
    00000A1A 3010                   CMP/EQ      R1,R0
    00000A1C 8B01                   BF          L970
    00000A1E A199                   BRA         L952
    00000A20 0009                   NOP
    00000A22              L970:                             
    00000A22 914F                   MOV.W       L969+2,R1  ; H'7547
    00000A24 3010                   CMP/EQ      R1,R0
    00000A26 8920                   BT          L770
    00000A28 914D                   MOV.W       L969+4,R1  ; H'7544
    00000A2A 3010                   CMP/EQ      R1,R0
    00000A2C 891F                   BT          L771
    00000A2E 914B                   MOV.W       L969+6,R1  ; H'7545
    00000A30 3010                   CMP/EQ      R1,R0
    00000A32 891E                   BT          L772




SH SERIES C/C++ Compiler (Ver. 6.0C)                                                                 03-Apr-2015 20:15:51  PAGE   31


SCT OFFSET   CODE       C LABEL     INSTRUCTION OPERAND    COMMENT

    00000A34 9149                   MOV.W       L969+8,R1  ; H'7532
    00000A36 3010                   CMP/EQ      R1,R0
    00000A38 891D                   BT          L773
    00000A3A 9147                   MOV.W       L969+10,R1 ; H'7539
    00000A3C 3010                   CMP/EQ      R1,R0
    00000A3E 896F                   BT          L775
    00000A40 9145                   MOV.W       L969+12,R1 ; H'753A
    00000A42 3010                   CMP/EQ      R1,R0
    00000A44 8971                   BT          L776
    00000A46 9143                   MOV.W       L969+14,R1 ; H'753B
    00000A48 3010                   CMP/EQ      R1,R0
    00000A4A 8974                   BT          L777
    00000A4C 9141                   MOV.W       L969+16,R1 ; H'753C
    00000A4E 3010                   CMP/EQ      R1,R0
    00000A50 8977                   BT          L778
    00000A52 913F                   MOV.W       L969+18,R1 ; H'753D
    00000A54 3010                   CMP/EQ      R1,R0
    00000A56 8B01                   BF          L971
    00000A58 A094                   BRA         L781
    00000A5A 0009                   NOP
    00000A5C              L971:                             
    00000A5C 913B                   MOV.W       L969+20,R1 ; H'753E
    00000A5E 3010                   CMP/EQ      R1,R0
    00000A60 8B01                   BF          L972
    00000A62 A0D9                   BRA         L783
    00000A64 0009                   NOP
    00000A66              L972:                             
    00000A66 A0F1                   BRA         L786
    00000A68 0009                   NOP
    00000A6A              L770:                            ; case label 
    00000A6A A178                   BRA         L719
    00000A6C 7E01                   ADD         #1,R14
    00000A6E              L771:                            ; case label 
    00000A6E A176                   BRA         L719
    00000A70 7CFF                   ADD         #-1,R12
    00000A72              L772:                            ; case label 
    00000A72 A174                   BRA         L719
    00000A74 7C01                   ADD         #1,R12
    00000A76              L773:                            ; case label 
    00000A76 D21C                   MOV.L       L969+38,R2 ; _PopUpWin
    00000A78 420B                   JSR         @R2
    00000A7A E405                   MOV         #5,R4
    00000A7C D61B                   MOV.L       L969+42,R6 ; L665
    00000A7E E50C                   MOV         #12,R5
    00000A80 D315                   MOV.L       L969+22,R3 ; _DispStr
    00000A82 430B                   JSR         @R3
    00000A84 E430                   MOV         #48,R4
    00000A86 E505                   MOV         #5,R5
    00000A88 D219                   MOV.L       L969+46,R2 ; _locate
    00000A8A 420B                   JSR         @R2
    00000A8C E407                   MOV         #7,R4
    00000A8E D419                   MOV.L       L969+50,R4 ; L553
    00000A90 D319                   MOV.L       L969+54,R3 ; _Print
    00000A92 430B                   JSR         @R3
    00000A94 0009                   NOP
    00000A96 E506                   MOV         #6,R5
    00000A98 D215                   MOV.L       L969+46,R2 ; _locate




SH SERIES C/C++ Compiler (Ver. 6.0C)                                                                 03-Apr-2015 20:15:51  PAGE   32


SCT OFFSET   CODE       C LABEL     INSTRUCTION OPERAND    COMMENT

    00000A9A 420B                   JSR         @R2
    00000A9C E407                   MOV         #7,R4
    00000A9E DE17                   MOV.L       L969+58,R14; L554
    00000AA0 D315                   MOV.L       L969+54,R3 ; _Print
    00000AA2 430B                   JSR         @R3
    00000AA4 64E3                   MOV         R14,R4
    00000AA6 D40E                   MOV.L       L969+30,R4 ; _key
    00000AA8 D20E                   MOV.L       L969+34,R2 ; _GetKey
    00000AAA 420B                   JSR         @R2
    00000AAC 0009                   NOP
    00000AAE 9412                   MOV.W       L969+20,R4 ; H'753E
    00000AB0 6392                   MOV.L       @R9,R3
    00000AB2 3340                   CMP/EQ      R4,R3
    00000AB4 8903                   BT          L920
    00000AB6 9108                   MOV.W       L969+8,R1  ; H'7532
    00000AB8 6292                   MOV.L       @R9,R2
    00000ABA 3210                   CMP/EQ      R1,R2
    00000ABC 8B20                   BF          L919
    00000ABE              L920:                             
    00000ABE A020                   BRA         L921
    00000AC0 64D3                   MOV         R13,R4
    00000AC2              L969:                             
    00000AC2 7542                   .DATA.W     H'7542
    00000AC4 7547                   .DATA.W     H'7547
    00000AC6 7544                   .DATA.W     H'7544
    00000AC8 7545                   .DATA.W     H'7545
    00000ACA 7532                   .DATA.W     H'7532
    00000ACC 7539                   .DATA.W     H'7539
    00000ACE 753A                   .DATA.W     H'753A
    00000AD0 753B                   .DATA.W     H'753B
    00000AD2 753C                   .DATA.W     H'753C
    00000AD4 753D                   .DATA.W     H'753D
    00000AD6 753E                   .DATA.W     H'753E
    00000AD8 <00000000>             .DATA.L     _DispStr
    00000ADC <00000000>             .DATA.L     _PrintXY
    00000AE0 <00000000>             .DATA.L     _key
    00000AE4 <00000000>             .DATA.L     _GetKey
    00000AE8 <00000000>             .DATA.L     _PopUpWin
    00000AEC <00000000>             .DATA.L     L665
    00000AF0 <00000000>             .DATA.L     _locate
    00000AF4 <00000000>             .DATA.L     L553
    00000AF8 <00000000>             .DATA.L     _Print
    00000AFC <00000000>             .DATA.L     L554
    00000B00              L919:                             
    00000B00 E401                   MOV         #1,R4
    00000B02              L921:                             
    00000B02 2448                   TST         R4,R4
    00000B04 890A                   BT          L924
    00000B06 D232                   MOV.L       L973+2,R2  ; H'00000004+_setup_data
    00000B08 6320                   MOV.B       @R2,R3
    00000B0A 2338                   TST         R3,R3
    00000B0C 8B02                   BF          L925
    00000B0E DE31                   MOV.L       L973+6,R14 ; _WheterSavaAS
    00000B10 A002                   BRA         L948
    00000B12 0009                   NOP
    00000B14              L925:                             
    00000B14 DE30                   MOV.L       L973+10,R14; _SaveSRDFile




SH SERIES C/C++ Compiler (Ver. 6.0C)                                                                 03-Apr-2015 20:15:51  PAGE   33


SCT OFFSET   CODE       C LABEL     INSTRUCTION OPERAND    COMMENT

    00000B16 D42E                   MOV.L       L973+2,R4  ; H'00000004+_setup_data
    00000B18              L948:                             
    00000B18 4E0B                   JSR         @R14
    00000B1A 0009                   NOP
    00000B1C              L924:                             
    00000B1C A148                   BRA         L927
    00000B1E E000                   MOV         #0,R0
    00000B20              L775:                            ; case label 
    00000B20 D92E                   MOV.L       L973+14,R9 ; _SelSetupF5
    00000B22 490B                   JSR         @R9
    00000B24 EA02                   MOV         #2,R10
    00000B26 A11B                   BRA         L917
    00000B28 0009                   NOP
    00000B2A              L776:                            ; case label 
    00000B2A D42D                   MOV.L       L973+18,R4 ; _route
    00000B2C D32D                   MOV.L       L973+22,R3 ; _route_push_back
    00000B2E 430B                   JSR         @R3
    00000B30 0009                   NOP
    00000B32 A10F                   BRA         L952
    00000B34 5EB9                   MOV.L       @(36,R11),R14
    00000B36              L777:                            ; case label 
    00000B36 DA2C                   MOV.L       L973+26,R10; _route_insert
    00000B38 D429                   MOV.L       L973+18,R4 ; _route
    00000B3A 4A0B                   JSR         @R10
    00000B3C 65E3                   MOV         R14,R5
    00000B3E A10B                   BRA         L953
    00000B40 0009                   NOP
    00000B42              L778:                            ; case label 
    00000B42 EA02                   MOV         #2,R10
    00000B44 D329                   MOV.L       L973+30,R3 ; _PopUpWin
    00000B46 430B                   JSR         @R3
    00000B48 E404                   MOV         #4,R4
    00000B4A E50A                   MOV         #10,R5
    00000B4C D229                   MOV.L       L973+38,R2 ; _DispStr
    00000B4E D628                   MOV.L       L973+34,R6 ; L673
    00000B50 420B                   JSR         @R2
    00000B52 E419                   MOV         #25,R4
    00000B54 D328                   MOV.L       L973+42,R3 ; _locate
    00000B56 E505                   MOV         #5,R5
    00000B58 430B                   JSR         @R3
    00000B5A E403                   MOV         #3,R4
    00000B5C D427                   MOV.L       L973+46,R4 ; L674
    00000B5E D228                   MOV.L       L973+50,R2 ; _Print
    00000B60 420B                   JSR         @R2
    00000B62 0009                   NOP
    00000B64 D427                   MOV.L       L973+54,R4 ; _key
    00000B66 D328                   MOV.L       L973+58,R3 ; _GetKey
    00000B68 430B                   JSR         @R3
    00000B6A 0009                   NOP
    00000B6C 922F                   MOV.W       L973,R2    ; H'7539
    00000B6E 6392                   MOV.L       @R9,R3
    00000B70 3320                   CMP/EQ      R2,R3
    00000B72 8901                   BT          L974
    00000B74 A0F4                   BRA         L917
    00000B76 0009                   NOP
    00000B78              L974:                             
    00000B78 D924                   MOV.L       L973+62,R9 ; _route_del




SH SERIES C/C++ Compiler (Ver. 6.0C)                                                                 03-Apr-2015 20:15:51  PAGE   34


SCT OFFSET   CODE       C LABEL     INSTRUCTION OPERAND    COMMENT

    00000B7A D419                   MOV.L       L973+18,R4 ; _route
    00000B7C 490B                   JSR         @R9
    00000B7E 65E3                   MOV         R14,R5
    00000B80 A0EE                   BRA         L917
    00000B82 7EFF                   ADD         #-1,R14
    00000B84              L781:                            ; case label 
    00000B84 D219                   MOV.L       L973+30,R2 ; _PopUpWin
    00000B86 EA02                   MOV         #2,R10
    00000B88 420B                   JSR         @R2
    00000B8A E404                   MOV         #4,R4
    00000B8C D620                   MOV.L       L973+66,R6 ; L676
    00000B8E E50A                   MOV         #10,R5
    00000B90 D318                   MOV.L       L973+38,R3 ; _DispStr
    00000B92 430B                   JSR         @R3
    00000B94 E419                   MOV         #25,R4
    00000B96 E505                   MOV         #5,R5
    00000B98 D217                   MOV.L       L973+42,R2 ; _locate
    00000B9A 420B                   JSR         @R2
    00000B9C E403                   MOV         #3,R4
    00000B9E D417                   MOV.L       L973+46,R4 ; L674
    00000BA0 D317                   MOV.L       L973+50,R3 ; _Print
    00000BA2 430B                   JSR         @R3
    00000BA4 0009                   NOP
    00000BA6 D417                   MOV.L       L973+54,R4 ; _key
    00000BA8 D217                   MOV.L       L973+58,R2 ; _GetKey
    00000BAA 420B                   JSR         @R2
    00000BAC 0009                   NOP
    00000BAE 930E                   MOV.W       L973,R3    ; H'7539
    00000BB0 6292                   MOV.L       @R9,R2
    00000BB2 3230                   CMP/EQ      R3,R2
    00000BB4 8901                   BT          L975
    00000BB6 A0D3                   BRA         L917
    00000BB8 0009                   NOP
    00000BBA              L975:                             
    00000BBA D916                   MOV.L       L973+70,R9 ; _route_initial
    00000BBC D408                   MOV.L       L973+18,R4 ; _route
    00000BBE 490B                   JSR         @R9
    00000BC0 0009                   NOP
    00000BC2 D407                   MOV.L       L973+18,R4 ; _route
    00000BC4 D307                   MOV.L       L973+22,R3 ; _route_push_back
    00000BC6 430B                   JSR         @R3
    00000BC8 0009                   NOP
    00000BCA A0C9                   BRA         L917
    00000BCC 0009                   NOP
    00000BCE              L973:                             
    00000BCE 7539                   .DATA.W     H'7539
    00000BD0 <00000004>             .DATA.L     H'00000004+_setup_data
    00000BD4 <00000000>             .DATA.L     _WheterSavaAS
    00000BD8 <00000000>             .DATA.L     _SaveSRDFile
    00000BDC <00000000>             .DATA.L     _SelSetupF5
    00000BE0 <00000000>             .DATA.L     _route
    00000BE4 <00000000>             .DATA.L     _route_push_back
    00000BE8 <00000000>             .DATA.L     _route_insert
    00000BEC <00000000>             .DATA.L     _PopUpWin
    00000BF0 <00000000>             .DATA.L     L673
    00000BF4 <00000000>             .DATA.L     _DispStr
    00000BF8 <00000000>             .DATA.L     _locate




SH SERIES C/C++ Compiler (Ver. 6.0C)                                                                 03-Apr-2015 20:15:51  PAGE   35


SCT OFFSET   CODE       C LABEL     INSTRUCTION OPERAND    COMMENT

    00000BFC <00000000>             .DATA.L     L674
    00000C00 <00000000>             .DATA.L     _Print
    00000C04 <00000000>             .DATA.L     _key
    00000C08 <00000000>             .DATA.L     _GetKey
    00000C0C <00000000>             .DATA.L     _route_del
    00000C10 <00000000>             .DATA.L     L676
    00000C14 <00000000>             .DATA.L     _route_initial
    00000C18              L783:                            ; case label 
    00000C18 D32C                   MOV.L       L976+10,R3 ; _PopUpWin
    00000C1A EA02                   MOV         #2,R10
    00000C1C 430B                   JSR         @R3
    00000C1E E404                   MOV         #4,R4
    00000C20 D92B                   MOV.L       L976+14,R9 ; L678
    00000C22 E50A                   MOV         #10,R5
    00000C24 D22B                   MOV.L       L976+18,R2 ; _DispStr
    00000C26 6693                   MOV         R9,R6
    00000C28 420B                   JSR         @R2
    00000C2A E40F                   MOV         #15,R4
    00000C2C D32A                   MOV.L       L976+22,R3 ; H'00000004+_setup_data
    00000C2E 6230                   MOV.B       @R3,R2
    00000C30 2228                   TST         R2,R2
    00000C32 8B05                   BF          L930
    00000C34 D929                   MOV.L       L976+26,R9 ; L680
    00000C36 E51B                   MOV         #27,R5
    00000C38 D226                   MOV.L       L976+18,R2 ; _DispStr
    00000C3A 6693                   MOV         R9,R6
    00000C3C 420B                   JSR         @R2
    00000C3E E419                   MOV         #25,R4
    00000C40              L930:                             
    00000C40 D427                   MOV.L       L976+30,R4 ; _key
    00000C42 D328                   MOV.L       L976+34,R3 ; _GetKey
    00000C44 430B                   JSR         @R3
    00000C46 0009                   NOP
    00000C48 A08A                   BRA         L917
    00000C4A 0009                   NOP
    00000C4C              L786:                            ; default label 
    00000C4C 9939                   MOV.W       L976,R9    ; H'7532
    00000C4E 4C15                   CMP/PL      R12
    00000C50 8B50                   BF          L931
    00000C52 D223                   MOV.L       L976+30,R2 ; _key
    00000C54 D324                   MOV.L       L976+38,R3 ; _GetPressNumChar
    00000C56 430B                   JSR         @R3
    00000C58 6422                   MOV.L       @R2,R4
    00000C5A 80F8                   MOV.B       R0,@(8,R15)
    00000C5C 600E                   EXTS.B      R0,R0
    00000C5E 2008                   TST         R0,R0
    00000C60 8948                   BT          L931
    00000C62 E700                   MOV         #0,R7
    00000C64 52FC                   MOV.L       @(48,R15),R2
    00000C66 E52A                   MOV         #42,R5
    00000C68 84F8                   MOV.B       @(8,R15),R0
    00000C6A 2200                   MOV.B       R0,@R2
    00000C6C 53FB                   MOV.L       @(44,R15),R3
    00000C6E 23D0                   MOV.B       R13,@R3
    00000C70 D21E                   MOV.L       L976+42,R2 ; _InputString
    00000C72 E30C                   MOV         #12,R3
    00000C74 2F36                   MOV.L       R3,@-R15




SH SERIES C/C++ Compiler (Ver. 6.0C)                                                                 03-Apr-2015 20:15:51  PAGE   36


SCT OFFSET   CODE       C LABEL     INSTRUCTION OPERAND    COMMENT

    00000C76 66F3                   MOV         R15,R6
    00000C78 763C                   ADD         #60,R6
    00000C7A 420B                   JSR         @R2
    00000C7C E431                   MOV         #49,R4
    00000C7E 6A03                   MOV         R0,R10
    00000C80 3A90                   CMP/EQ      R9,R10
    00000C82 8D6C                   BT/S        L719
    00000C84 7F04                   ADD         #4,R15
    00000C86 64F3                   MOV         R15,R4
    00000C88 D119                   MOV.L       L976+46,R1 ; _atof
    00000C8A 7438                   ADD         #56,R4
    00000C8C 53F3                   MOV.L       @(12,R15),R3
    00000C8E 59B8                   MOV.L       @(32,R11),R9
    00000C90 393C                   ADD         R3,R9
    00000C92 790C                   ADD         #12,R9
    00000C94 53F4                   MOV.L       @(16,R15),R3
    00000C96 393C                   ADD         R3,R9
    00000C98 410B                   JSR         @R1
    00000C9A 2F96                   MOV.L       R9,@-R15
    00000C9C 9112                   MOV.W       L976+2,R1  ; H'7542
    00000C9E 60A3                   MOV         R10,R0
    00000CA0 3010                   CMP/EQ      R1,R0
    00000CA2 8D08                   BT/S        L787
    00000CA4 7F04                   ADD         #4,R15
    00000CA6 910E                   MOV.W       L976+4,R1  ; H'7547
    00000CA8 3010                   CMP/EQ      R1,R0
    00000CAA 8906                   BT          L788
    00000CAC 910C                   MOV.W       L976+6,R1  ; H'7534
    00000CAE 3010                   CMP/EQ      R1,R0
    00000CB0 8905                   BT          L789
    00000CB2 A054                   BRA         L719
    00000CB4 0009                   NOP
    00000CB6              L787:                            ; case label 
    00000CB6 A04D                   BRA         L952
    00000CB8 0009                   NOP
    00000CBA              L788:                            ; case label 
    00000CBA A04D                   BRA         L953
    00000CBC 0009                   NOP
    00000CBE              L789:                            ; case label 
    00000CBE A04E                   BRA         L719
    00000CC0 7C01                   ADD         #1,R12
    00000CC2              L976:                             
    00000CC2 7532                   .DATA.W     H'7532
    00000CC4 7542                   .DATA.W     H'7542
    00000CC6 7547                   .DATA.W     H'7547
    00000CC8 7534                   .DATA.W     H'7534
    00000CCA 0000                   .DATA.W     0
    00000CCC <00000000>             .DATA.L     _PopUpWin
    00000CD0 <00000000>             .DATA.L     L678
    00000CD4 <00000000>             .DATA.L     _DispStr
    00000CD8 <00000004>             .DATA.L     H'00000004+_setup_data
    00000CDC <00000000>             .DATA.L     L680
    00000CE0 <00000000>             .DATA.L     _key
    00000CE4 <00000000>             .DATA.L     _GetKey
    00000CE8 <00000000>             .DATA.L     _GetPressNumChar
    00000CEC <00000000>             .DATA.L     _InputString
    00000CF0 <00000000>             .DATA.L     _atof




SH SERIES C/C++ Compiler (Ver. 6.0C)                                                                 03-Apr-2015 20:15:51  PAGE   37


SCT OFFSET   CODE       C LABEL     INSTRUCTION OPERAND    COMMENT

    00000CF4              L931:                             
    00000CF4 2CC8                   TST         R12,R12
    00000CF6 8B33                   BF          L917
    00000CF8 D335                   MOV.L       L977+8,R3  ; _key
    00000CFA D236                   MOV.L       L977+12,R2 ; _GetPressChar
    00000CFC 420B                   JSR         @R2
    00000CFE 6432                   MOV.L       @R3,R4
    00000D00 80F8                   MOV.B       R0,@(8,R15)
    00000D02 600E                   EXTS.B      R0,R0
    00000D04 2008                   TST         R0,R0
    00000D06 892B                   BT          L917
    00000D08 52F9                   MOV.L       @(36,R15),R2
    00000D0A E701                   MOV         #1,R7
    00000D0C 84F8                   MOV.B       @(8,R15),R0
    00000D0E E52A                   MOV         #42,R5
    00000D10 2200                   MOV.B       R0,@R2
    00000D12 53FD                   MOV.L       @(52,R15),R3
    00000D14 D230                   MOV.L       L977+16,R2 ; _InputString
    00000D16 23D0                   MOV.B       R13,@R3
    00000D18 E30C                   MOV         #12,R3
    00000D1A 2F36                   MOV.L       R3,@-R15
    00000D1C 66F3                   MOV         R15,R6
    00000D1E 763C                   ADD         #60,R6
    00000D20 420B                   JSR         @R2
    00000D22 E431                   MOV         #49,R4
    00000D24 6A03                   MOV         R0,R10
    00000D26 3A90                   CMP/EQ      R9,R10
    00000D28 8D19                   BT/S        L719
    00000D2A 7F04                   ADD         #4,R15
    00000D2C D92B                   MOV.L       L977+20,R9 ; _strncpy
    00000D2E E60C                   MOV         #12,R6
    00000D30 53F3                   MOV.L       @(12,R15),R3
    00000D32 65F3                   MOV         R15,R5
    00000D34 54B8                   MOV.L       @(32,R11),R4
    00000D36 7538                   ADD         #56,R5
    00000D38 490B                   JSR         @R9
    00000D3A 343C                   ADD         R3,R4
    00000D3C 9144                   MOV.W       L977,R1    ; H'7542
    00000D3E 60A3                   MOV         R10,R0
    00000D40 3010                   CMP/EQ      R1,R0
    00000D42 8907                   BT          L790
    00000D44 9141                   MOV.W       L977+2,R1  ; H'7547
    00000D46 3010                   CMP/EQ      R1,R0
    00000D48 8906                   BT          L791
    00000D4A 913F                   MOV.W       L977+4,R1  ; H'7534
    00000D4C 3010                   CMP/EQ      R1,R0
    00000D4E 8905                   BT          L792
    00000D50 A005                   BRA         L719
    00000D52 0009                   NOP
    00000D54              L790:                            ; case label 
    00000D54              L952:                             
    00000D54 A003                   BRA         L719
    00000D56 7EFF                   ADD         #-1,R14
    00000D58              L791:                            ; case label 
    00000D58              L953:                             
    00000D58 A001                   BRA         L719
    00000D5A 7E01                   ADD         #1,R14




SH SERIES C/C++ Compiler (Ver. 6.0C)                                                                 03-Apr-2015 20:15:51  PAGE   38


SCT OFFSET   CODE       C LABEL     INSTRUCTION OPERAND    COMMENT

    00000D5C              L792:                            ; case label 
    00000D5C 7C01                   ADD         #1,R12
    00000D5E              L719:
    00000D5E EA02                   MOV         #2,R10
    00000D60              L917:                             
    00000D60 4C11                   CMP/PZ      R12
    00000D62 8D02                   BT/S        L938
    00000D64 E408                   MOV         #8,R4
    00000D66 6C43                   MOV         R4,R12
    00000D68 7EFF                   ADD         #-1,R14
    00000D6A              L938:                             
    00000D6A 3C47                   CMP/GT      R4,R12
    00000D6C 8B01                   BF          L939
    00000D6E 6CD3                   MOV         R13,R12
    00000D70 7E01                   ADD         #1,R14
    00000D72              L939:                             
    00000D72 4E11                   CMP/PZ      R14
    00000D74 8D01                   BT/S        L940
    00000D76 52B9                   MOV.L       @(36,R11),R2
    00000D78 6ED3                   MOV         R13,R14
    00000D7A              L940:                             
    00000D7A 3E23                   CMP/GE      R2,R14
    00000D7C 8B01                   BF          L941
    00000D7E 5EB9                   MOV.L       @(36,R11),R14
    00000D80 7EFF                   ADD         #-1,R14
    00000D82              L941:                             
    00000D82 52F1                   MOV.L       @(4,R15),R2
    00000D84 7203                   ADD         #3,R2
    00000D86 3E27                   CMP/GT      R2,R14
    00000D88 8B02                   BF          L942
    00000D8A 62E3                   MOV         R14,R2
    00000D8C 72FD                   ADD         #-3,R2
    00000D8E 1F21                   MOV.L       R2,@(4,R15)
    00000D90              L942:                             
    00000D90 53F1                   MOV.L       @(4,R15),R3
    00000D92 3E33                   CMP/GE      R3,R14
    00000D94 8D01                   BT/S        L943
    00000D96 6383                   MOV         R8,R3
    00000D98 1FE1                   MOV.L       R14,@(4,R15)
    00000D9A              L943:                             
    00000D9A 7303                   ADD         #3,R3
    00000D9C 3C37                   CMP/GT      R3,R12
    00000D9E 8B01                   BF          L944
    00000DA0 68C3                   MOV         R12,R8
    00000DA2 78FD                   ADD         #-3,R8
    00000DA4              L944:                             
    00000DA4 3C83                   CMP/GE      R8,R12
    00000DA6 8B01                   BF          L978
    00000DA8 AD25                   BRA         L892
    00000DAA 0009                   NOP
    00000DAC              L978:                             
    00000DAC AD23                   BRA         L892
    00000DAE 68C3                   MOV         R12,R8
    00000DB0              L927:                             
    00000DB0 910D                   MOV.W       L977+6,R1  ; H'00B4
    00000DB2 3F1C                   ADD         R1,R15
    00000DB4 4F16                   LDS.L       @R15+,MACL




SH SERIES C/C++ Compiler (Ver. 6.0C)                                                                 03-Apr-2015 20:15:51  PAGE   39


SCT OFFSET   CODE       C LABEL     INSTRUCTION OPERAND    COMMENT

    00000DB6 4F26                   LDS.L       @R15+,PR
    00000DB8 68F6                   MOV.L       @R15+,R8
    00000DBA 69F6                   MOV.L       @R15+,R9
    00000DBC 6AF6                   MOV.L       @R15+,R10
    00000DBE 6BF6                   MOV.L       @R15+,R11
    00000DC0 6CF6                   MOV.L       @R15+,R12
    00000DC2 6DF6                   MOV.L       @R15+,R13
    00000DC4 000B                   RTS
    00000DC6 6EF6                   MOV.L       @R15+,R14
    00000DC8              L977:                             
    00000DC8 7542                   .DATA.W     H'7542
    00000DCA 7547                   .DATA.W     H'7547
    00000DCC 7534                   .DATA.W     H'7534
    00000DCE 00B4                   .DATA.W     H'00B4
    00000DD0 <00000000>             .DATA.L     _key
    00000DD4 <00000000>             .DATA.L     _GetPressChar
    00000DD8 <00000000>             .DATA.L     _InputString
    00000DDC <00000000>             .DATA.L     _strncpy
C   00000000              L548:
    00000000 2564                   .SDATA      "%d"
    00000002 00                     .DATA.B     H'00
    00000003 00000001               .RES.B      1
    00000004              L552:
    00000004 B8B2B8C7               .DATA.B     H'B8,H'B2,H'B8,H'C7
    00000008 3F                     .SDATA      "?"
    00000009 00                     .DATA.B     H'00
    0000000A 00000002               .RES.W      1
    0000000C              L553:
    0000000C 596573203A             .SDATA      "Yes : [F1]"
             205B46315D   
    00000016 00                     .DATA.B     H'00
    00000017 00000001               .RES.B      1
    00000018              L554:
    00000018 4E6F20203A             .SDATA      "No  : [F6]"
             205B46365D   
    00000022 00                     .DATA.B     H'00
    00000023              L561:
    00000023 00                     .DATA.B     H'00
    00000024 0000000C01             .DATAB.B    12,0
             00           
    00000030              L565:
    00000030 CEC4BCFEC3             .DATA.B     H'CE,H'C4,H'BC,H'FE,H'C3,H'FB
             FB           
    00000036 282A2E7372             .SDATA      "(*.srd)"
             6429         
    0000003D 00                     .DATA.B     H'00
    0000003E 00000002               .RES.W      1
    00000040              L568:
    00000040 2E737264               .SDATA      ".srd"
    00000044 00                     .DATA.B     H'00
    00000045 00000001               .RES.B      1
    00000046 00000002               .RES.W      1
    00000048              L576:
    00000048 B1A3B4E6CE             .DATA.B     H'B1,H'A3,H'B4,H'E6,H'CE,H'AA
             AA           
    0000004E 20                     .SDATA      " "
    0000004F 00                     .DATA.B     H'00




SH SERIES C/C++ Compiler (Ver. 6.0C)                                                                 03-Apr-2015 20:15:51  PAGE   40


SCT OFFSET   CODE       C LABEL     INSTRUCTION OPERAND    COMMENT

    00000050              L577:
    00000050 B4F2BFAA               .DATA.B     H'B4,H'F2,H'BF,H'AA
    00000054 20                     .SDATA      " "
    00000055 00                     .DATA.B     H'00
    00000056 00000002               .RES.W      1
    00000058              L578:
    00000058 D0C2BDA8               .DATA.B     H'D0,H'C2,H'BD,H'A8
    0000005C 20                     .SDATA      " "
    0000005D 00                     .DATA.B     H'00
    0000005E              L583:
    0000005E 00                     .DATA.B     H'00
    0000005F 0000000C01             .DATAB.B    12,0
             00           
    0000006B 00000001               .RES.B      1
    0000006C              L596:
    0000006C 4E6F204669             .SDATA      "No File!"
             6C6521       
    00000074 00                     .DATA.B     H'00
    00000075 00000001               .RES.B      1
    00000076 00000002               .RES.W      1
    00000078              L600:
    00000078 D0C2BDA8               .DATA.B     H'D0,H'C2,H'BD,H'A8
    0000007C 3F                     .SDATA      "?"
    0000007D 00                     .DATA.B     H'00
    0000007E 00000002               .RES.W      1
    00000080              L602:
    00000080 B1A3B4E6CA             .DATA.B     H'B1,H'A3,H'B4,H'E6,H'CA,H'FD,H'BE,H'DD
             FDBEDD       
    00000088 3F                     .SDATA      "?"
    00000089 00                     .DATA.B     H'00
    0000008A 00000002               .RES.W      1
    0000008C              L610:
    0000008C <00000000>             .DATA.L     L611,L612,L613,L614,L615,L616,L617,L618,L619
             <00000000>   
             <00000000>   
             <00000000>   
             <00000000>   
             <00000000>   
             <00000000>   
             <00000000>   
             <00000000>   
    000000B0              L621:
    000000B0 <00000000>             .DATA.L     L622,L623,L624,L625,L626
             <00000000>   
             <00000000>   
             <00000000>   
             <00000000>   
    000000C4              L628:
    000000C4 <00000000>             .DATA.L     L629,L630,L631,L632,L633,L634,L635,L636,L637
             <00000000>   
             <00000000>   
             <00000000>   
             <00000000>   
             <00000000>   
             <00000000>   
             <00000000>   
             <00000000>   




SH SERIES C/C++ Compiler (Ver. 6.0C)                                                                 03-Apr-2015 20:15:51  PAGE   41


SCT OFFSET   CODE       C LABEL     INSTRUCTION OPERAND    COMMENT

    000000E8              L649:
    000000E8 00                     .DATA.B     H'00
    000000E9 0000000C01             .DATAB.B    12,0
             00           
    000000F5 00000001               .RES.B      1
    000000F6 00000002               .RES.W      1
    000000F8              L653:
    000000F8 3F                     .SDATA      "?"
    000000F9 00                     .DATA.B     H'00
    000000FA 00000002               .RES.W      1
    000000FC              L659:
    000000FC 256C66                 .SDATA      "%lf"
    000000FF 00                     .DATA.B     H'00
    00000100              L660:
    00000100 2573                   .SDATA      "%s"
    00000102 00                     .DATA.B     H'00
    00000103 00000001               .RES.B      1
    00000104              L665:
    00000104 B1A3B4E6               .DATA.B     H'B1,H'A3,H'B4,H'E6
    00000108 3F                     .SDATA      "?"
    00000109 00                     .DATA.B     H'00
    0000010A 00000002               .RES.W      1
    0000010C              L673:
    0000010C C9BE                   .DATA.B     H'C9,H'BE
    0000010E 20                     .SDATA      " "
    0000010F B3FD                   .DATA.B     H'B3,H'FD
    00000111 20                     .SDATA      " "
    00000112 D2BB                   .DATA.B     H'D2,H'BB
    00000114 20                     .SDATA      " "
    00000115 D0D0                   .DATA.B     H'D0,H'D0
    00000117 3F                     .SDATA      "?"
    00000118 00                     .DATA.B     H'00
    00000119 00000001               .RES.B      1
    0000011A 00000002               .RES.W      1
    0000011C              L674:
    0000011C 5B46315D59             .SDATA      "[F1]Yes   [F6]No"
             6573202020   
             5B46365D4E   
             6F           
    0000012C 00                     .DATA.B     H'00
    0000012D 00000001               .RES.B      1
    0000012E 00000002               .RES.W      1
    00000130              L676:
    00000130 C7E5                   .DATA.B     H'C7,H'E5
    00000132 20                     .SDATA      " "
    00000133 BFD5                   .DATA.B     H'BF,H'D5
    00000135 20                     .SDATA      " "
    00000136 CBF9                   .DATA.B     H'CB,H'F9
    00000138 20                     .SDATA      " "
    00000139 D3D0                   .DATA.B     H'D3,H'D0
    0000013B 203F                   .SDATA      " ?"
    0000013D 00                     .DATA.B     H'00
    0000013E 00000002               .RES.W      1
    00000140              L678:
    00000140 CFDFC2B7C3             .DATA.B     H'CF,H'DF,H'C2,H'B7,H'C3,H'FB,H'B3,H'C6,H'00
             FBB3C600     
    00000149 00000001               .RES.B      1




SH SERIES C/C++ Compiler (Ver. 6.0C)                                                                 03-Apr-2015 20:15:51  PAGE   42


SCT OFFSET   CODE       C LABEL     INSTRUCTION OPERAND    COMMENT

    0000014A 00000002               .RES.W      1
    0000014C              L680:
    0000014C C7EBB1A3B4             .DATA.B     H'C7,H'EB,H'B1,H'A3,H'B4,H'E6,H'CF,H'DF,H'C2,H'B7,H'CE,H'C4,H'BC,H'FE
             E6CFDFC2B7   
             CEC4BCFE     
    0000015A 20                     .SDATA      " "
    0000015B 00                     .DATA.B     H'00
    0000015C              L611:
    0000015C 4448                   .SDATA      "DH"
    0000015E 00                     .DATA.B     H'00
    0000015F 00000001               .RES.B      1
    00000160              L612:
    00000160 51445A48               .SDATA      "QDZH"
    00000164 00                     .DATA.B     H'00
    00000165 00000001               .RES.B      1
    00000166 00000002               .RES.W      1
    00000168              L613:
    00000168 5A445A48               .SDATA      "ZDZH"
    0000016C 00                     .DATA.B     H'00
    0000016D 00000001               .RES.B      1
    0000016E 00000002               .RES.W      1
    00000170              L614:
    00000170 58                     .SDATA      "X"
    00000171 00                     .DATA.B     H'00
    00000172 00000002               .RES.W      1
    00000174              L615:
    00000174 59                     .SDATA      "Y"
    00000175 00                     .DATA.B     H'00
    00000176 00000002               .RES.W      1
    00000178              L616:
    00000178 46574A                 .SDATA      "FWJ"
    0000017B 00                     .DATA.B     H'00
    0000017C              L617:
    0000017C 5A58                   .SDATA      "ZX"
    0000017E 00                     .DATA.B     H'00
    0000017F 00000001               .RES.B      1
    00000180              L618:
    00000180 5144424A               .SDATA      "QDBJ"
    00000184 00                     .DATA.B     H'00
    00000185 00000001               .RES.B      1
    00000186 00000002               .RES.W      1
    00000188              L619:
    00000188 5A44424A               .SDATA      "ZDBJ"
    0000018C 00                     .DATA.B     H'00
    0000018D 00000001               .RES.B      1
    0000018E 00000002               .RES.W      1
    00000190              L622:
    00000190 536574                 .SDATA      "Set"
    00000193 00                     .DATA.B     H'00
    00000194              L623:
    00000194 416464                 .SDATA      "Add"
    00000197 00                     .DATA.B     H'00
    00000198              L624:
    00000198 496E73                 .SDATA      "Ins"
    0000019B 00                     .DATA.B     H'00
    0000019C              L625:
    0000019C 44656C4C               .SDATA      "DelL"




SH SERIES C/C++ Compiler (Ver. 6.0C)                                                                 03-Apr-2015 20:15:51  PAGE   43


SCT OFFSET   CODE       C LABEL     INSTRUCTION OPERAND    COMMENT

    000001A0 00                     .DATA.B     H'00
    000001A1 00000001               .RES.B      1
    000001A2 00000002               .RES.W      1
    000001A4              L626:
    000001A4 44656C41               .SDATA      "DelA"
    000001A8 00                     .DATA.B     H'00
    000001A9 00000001               .RES.B      1
    000001AA 00000002               .RES.W      1
    000001AC              L629:
    000001AC B5E3C3FB00             .DATA.B     H'B5,H'E3,H'C3,H'FB,H'00
    000001B1 00000001               .RES.B      1
    000001B2 00000002               .RES.W      1
    000001B4              L630:
    000001B4 C6F0B5E3D7             .DATA.B     H'C6,H'F0,H'B5,H'E3,H'D7,H'AE,H'BA,H'C5,H'00
             AEBAC500     
    000001BD 00000001               .RES.B      1
    000001BE 00000002               .RES.W      1
    000001C0              L631:
    000001C0 D6D5B5E3D7             .DATA.B     H'D6,H'D5,H'B5,H'E3,H'D7,H'AE,H'BA,H'C5,H'00
             AEBAC500     
    000001C9 00000001               .RES.B      1
    000001CA 00000002               .RES.W      1
    000001CC              L632:
    000001CC 58                     .SDATA      "X"
    000001CD D7F8B1EA               .DATA.B     H'D7,H'F8,H'B1,H'EA
    000001D1 20                     .SDATA      " "
    000001D2 00                     .DATA.B     H'00
    000001D3 00000001               .RES.B      1
    000001D4              L633:
    000001D4 59                     .SDATA      "Y"
    000001D5 D7F8B1EA               .DATA.B     H'D7,H'F8,H'B1,H'EA
    000001D9 20                     .SDATA      " "
    000001DA 00                     .DATA.B     H'00
    000001DB 00000001               .RES.B      1
    000001DC              L634:
    000001DC B7BDCEBBBD             .DATA.B     H'B7,H'BD,H'CE,H'BB,H'BD,H'C7
             C7           
    000001E2 20                     .SDATA      " "
    000001E3 00                     .DATA.B     H'00
    000001E4              L635:
    000001E4 D7AACFF2               .DATA.B     H'D7,H'AA,H'CF,H'F2
    000001E8 20                     .SDATA      " "
    000001E9 00                     .DATA.B     H'00
    000001EA 00000002               .RES.W      1
    000001EC              L636:
    000001EC C6F0B5E3B0             .DATA.B     H'C6,H'F0,H'B5,H'E3,H'B0,H'EB,H'BE,H'B6,H'00
             EBBEB600     
    000001F5 00000001               .RES.B      1
    000001F6 00000002               .RES.W      1
    000001F8              L637:
    000001F8 D6D5B5E3B0             .DATA.B     H'D6,H'D5,H'B5,H'E3,H'B0,H'EB,H'BE,H'B6,H'00
             EBBEB600     









SH SERIES C/C++ Compiler (Ver. 6.0C)                                                                 03-Apr-2015 20:15:51  PAGE    1


******** STATISTICS INFORMATION ********


********** ERROR INFORMATION ***********

NUMBER OF ERRORS:           0
NUMBER OF WARNINGS:        36




******* SOURCE LINE INFORMATION ********

COMPILED SOURCE LINE:      407



******* SECTION SIZE INFORMATION *******

PROGRAM  SECTION (P):                               00000DE0 Byte(s)
CONSTANT SECTION (C):                               00000201 Byte(s)
DATA     SECTION (D):                               00000000 Byte(s)
BSS      SECTION (B):                               00000000 Byte(s)

 TOTAL PROGRAM SIZE: 00000FE1 Byte(s)



********** LABEL INFORMATION ***********

NUMBER OF EXTERNAL REFERENCE SYMBOLS:           51
NUMBER OF EXTERNAL DEFINITION SYMBOLS:           7
NUMBER OF INTERNAL/EXTERNAL SYMBOLS:           236






























*** COMMAND PARAMETER ***


  -subcommand=C:\Users\ADMINI~1\AppData\Local\Temp\hmk9D40.tmp 

