SH SERIES C/C++ Compiler (Ver. 6.0C)                                                                 01-Jun-2015 13:45:28  PAGE    1

************ OBJECT LISTING ************

FILE NAME: C:\Users\Administrator\Desktop\2015-06-1Æ½ÃæÒÆÈë½»µã·¨\XY_parameter.c

SCT OFFSET   CODE       C LABEL     INSTRUCTION OPERAND    COMMENT

      XY_paramet     1    #include "headfile.h"












      XY_paramet     2    #include "Binrunmain.h"
      XY_paramet     3    #include "zbzfs.h"

      XY_paramet     4    #include "MyFont.h"


      XY_paramet     5    #include "cvs.h"
      XY_paramet     6    #include <stdarg.h>
      XY_paramet     7                
      XY_paramet     8    
      XY_paramet     9    double sd_to_xyaSrd( double stake, double distance, double angle, int xya );
      XY_paramet    10    double xy_to_sdSrd( double PX, double PY, int sd );
      XY_paramet    11                            
      XY_paramet    12                            
      XY_paramet    13    int PrintTables(short x,short y,char * str,short sel,short lbl)
P   00000000              _PrintTables:                    ; function: PrintTables
                                                           ; frame size=44
    00000000 2FE6                   MOV.L       R14,@-R15
    00000002 6073                   MOV         R7,R0
      XY_paramet    14    {
      XY_paramet    15            int len;
      XY_paramet    16            const int width = 28;
      XY_paramet    17            len = strlen(str);
    00000004 D350                   MOV.L       L1051+8,R3 ; _strlen
    00000006 2FD6                   MOV.L       R13,@-R15
    00000008 2FC6                   MOV.L       R12,@-R15
    0000000A 6C63                   MOV         R6,R12
    0000000C 2FB6                   MOV.L       R11,@-R15
    0000000E EB1C                   MOV         #28,R11
    00000010 2FA6                   MOV.L       R10,@-R15
    00000012 2F96                   MOV.L       R9,@-R15
    00000014 2F86                   MOV.L       R8,@-R15
    00000016 6943                   MOV         R4,R9
    00000018 4F22                   STS.L       PR,@-R15
    0000001A 4F12                   STS.L       MACL,@-R15
    0000001C 7FF8                   ADD         #-8,R15
    0000001E 2F51                   MOV.W       R5,@R15
    00000020 81F2                   MOV.W       R0,@(4,R15)
    00000022 430B                   JSR         @R3
    00000024 64C3                   MOV         R12,R4
    00000026 6A03                   MOV         R0,R10
      XY_paramet    18            x *= width;
      XY_paramet    19            y *= 8;
    00000028 63F1                   MOV.W       @R15,R3
    0000002A 62B3                   MOV         R11,R2
    0000002C 292F                   MULS        R2,R9
    0000002E 4308                   SHLL2       R3
    00000030 091A                   STS         MACL,R9
    00000032 4300                   SHLL        R3
    00000034 2F31                   MOV.W       R3,@R15
      XY_paramet    20            x += 16;
    00000036 7910                   ADD         #16,R9
    00000038 85F2                   MOV.W       @(4,R15),R0
    0000003A 6E3F                   EXTS.W      R3,R14
    0000003C 2008                   TST         R0,R0
    0000003E 8D1C                   BT/S        L890




SH SERIES C/C++ Compiler (Ver. 6.0C)                                                                 01-Jun-2015 13:45:28  PAGE    2


SCT OFFSET   CODE       C LABEL     INSTRUCTION OPERAND    COMMENT

    00000040 6D9F                   EXTS.W      R9,R13
      XY_paramet    21            if (sel)
      XY_paramet    22            {
      XY_paramet    23                    Bdisp_AreaReverseVRAM(x,y,x+width-1,y+7);
    00000042 67E3                   MOV         R14,R7
    00000044 D141                   MOV.L       L1051+12,R1; _Bdisp_AreaReverseVRAM
    00000046 66D3                   MOV         R13,R6
    00000048 7707                   ADD         #7,R7
    0000004A 761B                   ADD         #27,R6
    0000004C 65E3                   MOV         R14,R5
    0000004E 410B                   JSR         @R1
    00000050 64D3                   MOV         R13,R4
      XY_paramet    24                    PrintMini(x+1+(lbl ? (width-5*len)/2:0),y+1,str,MINI_REV);
    00000052 E712                   MOV         #18,R7
    00000054 66C3                   MOV         R12,R6
    00000056 65E3                   MOV         R14,R5
    00000058 E02E                   MOV         #46,R0
    0000005A 03FD                   MOV.W       @(R0,R15),R3
    0000005C 2338                   TST         R3,R3
    0000005E 8D0A                   BT/S        L891
    00000060 7501                   ADD         #1,R5
    00000062 63A3                   MOV         R10,R3
    00000064 4A08                   SHLL2       R10
    00000066 3A3C                   ADD         R3,R10
    00000068 3BA8                   SUB         R10,R11
    0000006A 64B3                   MOV         R11,R4
    0000006C E300                   MOV         #0,R3
    0000006E 3347                   CMP/GT      R4,R3
    00000070 343E                   ADDC        R3,R4
    00000072 A025                   BRA         L1041
    00000074 4421                   SHAR        R4
    00000076              L891:                             
    00000076 A023                   BRA         L1041
    00000078 E400                   MOV         #0,R4
    0000007A              L890:                             
      XY_paramet    25            }
      XY_paramet    26            else
      XY_paramet    27            {
      XY_paramet    28    
      XY_paramet    29                    Bdisp_DrawLineVRAM(x+width-1,y,x+width-1,y+7);
    0000007A 69E3                   MOV         R14,R9
    0000007C D134                   MOV.L       L1051+16,R1; _Bdisp_DrawLineVRAM
    0000007E 68D3                   MOV         R13,R8
    00000080 7907                   ADD         #7,R9
    00000082 6793                   MOV         R9,R7
    00000084 781B                   ADD         #27,R8
    00000086 6683                   MOV         R8,R6
    00000088 65E3                   MOV         R14,R5
    0000008A 410B                   JSR         @R1
    0000008C 6483                   MOV         R8,R4
      XY_paramet    30                    Bdisp_DrawLineVRAM(x,y+7,x+width-1,y+7);
    0000008E 6793                   MOV         R9,R7
    00000090 D32F                   MOV.L       L1051+16,R3; _Bdisp_DrawLineVRAM
    00000092 6683                   MOV         R8,R6
    00000094 6593                   MOV         R9,R5
    00000096 430B                   JSR         @R3
    00000098 64D3                   MOV         R13,R4




SH SERIES C/C++ Compiler (Ver. 6.0C)                                                                 01-Jun-2015 13:45:28  PAGE    3


SCT OFFSET   CODE       C LABEL     INSTRUCTION OPERAND    COMMENT

      XY_paramet    31                    PrintMini(x+1+(lbl ? (width-5*len)/2:0),y+1,str,MINI_OVER);
    0000009A E710                   MOV         #16,R7
    0000009C 66C3                   MOV         R12,R6
    0000009E 65E3                   MOV         R14,R5
    000000A0 E02E                   MOV         #46,R0
    000000A2 03FD                   MOV.W       @(R0,R15),R3
    000000A4 2338                   TST         R3,R3
    000000A6 8D0A                   BT/S        L894
    000000A8 7501                   ADD         #1,R5
    000000AA 63A3                   MOV         R10,R3
    000000AC 4A08                   SHLL2       R10
    000000AE 3A3C                   ADD         R3,R10
    000000B0 3BA8                   SUB         R10,R11
    000000B2 64B3                   MOV         R11,R4
    000000B4 E300                   MOV         #0,R3
    000000B6 3347                   CMP/GT      R4,R3
    000000B8 343E                   ADDC        R3,R4
    000000BA A001                   BRA         L1041
    000000BC 4421                   SHAR        R4
    000000BE              L894:                             
    000000BE E400                   MOV         #0,R4
    000000C0              L1041:                            
    000000C0 D324                   MOV.L       L1051+20,R3; _PrintMini
    000000C2 34DC                   ADD         R13,R4
    000000C4 7401                   ADD         #1,R4
    000000C6 7F08                   ADD         #8,R15
    000000C8 4F16                   LDS.L       @R15+,MACL
    000000CA 4F26                   LDS.L       @R15+,PR
    000000CC 68F6                   MOV.L       @R15+,R8
    000000CE 69F6                   MOV.L       @R15+,R9
    000000D0 6AF6                   MOV.L       @R15+,R10
    000000D2 6BF6                   MOV.L       @R15+,R11
    000000D4 6CF6                   MOV.L       @R15+,R12
    000000D6 6DF6                   MOV.L       @R15+,R13
    000000D8 432B                   JMP         @R3
    000000DA 6EF6                   MOV.L       @R15+,R14
      XY_paramet    32            }
      XY_paramet    33    }
      XY_paramet    34    int PrintTableFormats (short x,short y,short sel,short lbl,char * format,...)
    000000DC              _PrintTableFormats:              ; function: PrintTableFormats
                                                           ; frame size=156
    000000DC 2FE6                   MOV.L       R14,@-R15
    000000DE 4F22                   STS.L       PR,@-R15
    000000E0 902E                   MOV.W       L1051,R0   ; H'FF70
    000000E2 3F0C                   ADD         R0,R15
    000000E4 6043                   MOV         R4,R0
    000000E6 81F2                   MOV.W       R0,@(4,R15)
    000000E8 6053                   MOV         R5,R0
      XY_paramet    35    {
      XY_paramet    36            char buffer[128];
      XY_paramet    37            va_list parglist;
      XY_paramet    38            va_start(parglist, format);
    000000EA E503                   MOV         #3,R5
    000000EC 81F4                   MOV.W       R0,@(8,R15)
    000000EE 6063                   MOV         R6,R0
    000000F0 81F6                   MOV.W       R0,@(12,R15)
    000000F2 2F71                   MOV.W       R7,@R15




SH SERIES C/C++ Compiler (Ver. 6.0C)                                                                 01-Jun-2015 13:45:28  PAGE    4


SCT OFFSET   CODE       C LABEL     INSTRUCTION OPERAND    COMMENT

    000000F4 9025                   MOV.W       L1051+2,R0 ; H'0098
    000000F6 30FC                   ADD         R15,R0
    000000F8 7004                   ADD         #4,R0
    000000FA 2508                   TST         R0,R5
    000000FC 8903                   BT          L896
    000000FE 9520                   MOV.W       L1051+2,R5 ; H'0098
    00000100 35FC                   ADD         R15,R5
    00000102 A003                   BRA         L897
    00000104 7508                   ADD         #8,R5
    00000106              L896:                             
    00000106 951C                   MOV.W       L1051+2,R5 ; H'0098
    00000108 35FC                   ADD         R15,R5
    0000010A 7504                   ADD         #4,R5
    0000010C              L897:                             
      XY_paramet    39            vsprintf(buffer,format, parglist);
    0000010C 9019                   MOV.W       L1051+2,R0 ; H'0098
    0000010E 6EF3                   MOV         R15,R14
    00000110 D311                   MOV.L       L1051+24,R3; _vsprintf
    00000112 6653                   MOV         R5,R6
    00000114 05FE                   MOV.L       @(R0,R15),R5
    00000116 7E10                   ADD         #16,R14
    00000118 430B                   JSR         @R3
    0000011A 64E3                   MOV         R14,R4
      XY_paramet    40            va_end(pArgList);
      XY_paramet    41            buffer[6] = 0;
    0000011C E000                   MOV         #0,R0
      XY_paramet    42            PrintTables(x,y,buffer,sel,lbl);
    0000011E 66E3                   MOV         R14,R6
    00000120 80E6                   MOV.B       R0,@(6,R14)
    00000122 63F1                   MOV.W       @R15,R3
    00000124 2F36                   MOV.L       R3,@-R15
    00000126 85F8                   MOV.W       @(16,R15),R0
    00000128 6703                   MOV         R0,R7
    0000012A 85F6                   MOV.W       @(12,R15),R0
    0000012C 6503                   MOV         R0,R5
    0000012E 85F4                   MOV.W       @(8,R15),R0
    00000130 BF66                   BSR         _PrintTables
    00000132 6403                   MOV         R0,R4
      XY_paramet    43            return 0;
      XY_paramet    44    }
    00000134 9106                   MOV.W       L1051+4,R1 ; H'0094
    00000136 E000                   MOV         #0,R0
    00000138 3F1C                   ADD         R1,R15
    0000013A 4F26                   LDS.L       @R15+,PR
    0000013C 000B                   RTS
    0000013E 6EF6                   MOV.L       @R15+,R14
    00000140              L1051:                            
    00000140 FF70                   .DATA.W     H'FF70
    00000142 0098                   .DATA.W     H'0098
    00000144 0094                   .DATA.W     H'0094
    00000146 0000                   .DATA.W     0
    00000148 <00000000>             .DATA.L     _strlen
    0000014C <00000000>             .DATA.L     _Bdisp_AreaReverseVRAM
    00000150 <00000000>             .DATA.L     _Bdisp_DrawLineVRAM
    00000154 <00000000>             .DATA.L     _PrintMini
    00000158 <00000000>             .DATA.L     _vsprintf
      XY_paramet    45    int PrintTableIndexs (int y,int index)




SH SERIES C/C++ Compiler (Ver. 6.0C)                                                                 01-Jun-2015 13:45:28  PAGE    5


SCT OFFSET   CODE       C LABEL     INSTRUCTION OPERAND    COMMENT

    0000015C              _PrintTableIndexs:               ; function: PrintTableIndexs
                                                           ; frame size=28
    0000015C 2FE6                   MOV.L       R14,@-R15
    0000015E 2FD6                   MOV.L       R13,@-R15
    00000160 4F22                   STS.L       PR,@-R15
    00000162 6D53                   MOV         R5,R13
    00000164 7FF8                   ADD         #-8,R15
      XY_paramet    46    {
      XY_paramet    47            char buffer[8];
      XY_paramet    48            if (index<0 || index>999) return 0;
    00000166 4D11                   CMP/PZ      R13
    00000168 8F03                   BF/S        L900
    0000016A 6E43                   MOV         R4,R14
    0000016C 927C                   MOV.W       L1052,R2   ; H'03E7
    0000016E 3D27                   CMP/GT      R2,R13
    00000170 8B01                   BF          L899
    00000172              L900:                             
    00000172 A018                   BRA         L901
    00000174 E000                   MOV         #0,R0
    00000176              L899:                             
      XY_paramet    49            sprintf(buffer,"%d",index);
    00000176 2FD6                   MOV.L       R13,@-R15
    00000178 D23D                   MOV.L       L1052+8,R2 ; L563
    0000017A 2F26                   MOV.L       R2,@-R15
    0000017C D33D                   MOV.L       L1052+12,R3; _sprintf
    0000017E 64F3                   MOV         R15,R4
    00000180 430B                   JSR         @R3
    00000182 7408                   ADD         #8,R4
      XY_paramet    50            y *= 8;
      XY_paramet    51            Bdisp_AreaReverseVRAM(0,y,15,y+7);
    00000184 D23C                   MOV.L       L1052+16,R2; _Bdisp_AreaReverseVRAM
    00000186 7F08                   ADD         #8,R15
    00000188 4E08                   SHLL2       R14
    0000018A 4E00                   SHLL        R14
    0000018C 67E3                   MOV         R14,R7
    0000018E 7707                   ADD         #7,R7
    00000190 E60F                   MOV         #15,R6
    00000192 65E3                   MOV         R14,R5
    00000194 420B                   JSR         @R2
    00000196 E400                   MOV         #0,R4
      XY_paramet    52            PrintMini(1,y+2,buffer,MINI_REV);
    00000198 D338                   MOV.L       L1052+20,R3; _PrintMini
    0000019A E712                   MOV         #18,R7
    0000019C 66F3                   MOV         R15,R6
    0000019E 65E3                   MOV         R14,R5
    000001A0 7502                   ADD         #2,R5
    000001A2 430B                   JSR         @R3
    000001A4 E401                   MOV         #1,R4
      XY_paramet    53    }
    000001A6              L901:                             
    000001A6 7F08                   ADD         #8,R15
    000001A8 4F26                   LDS.L       @R15+,PR
    000001AA 6DF6                   MOV.L       @R15+,R13
    000001AC 000B                   RTS
    000001AE 6EF6                   MOV.L       @R15+,R14
      XY_paramet    54    int WhetherCover()
    000001B0              _WhetherCover:                   ; function: WhetherCover




SH SERIES C/C++ Compiler (Ver. 6.0C)                                                                 01-Jun-2015 13:45:28  PAGE    6


SCT OFFSET   CODE       C LABEL     INSTRUCTION OPERAND    COMMENT

                                                           ; frame size=24
    000001B0 2FE6                   MOV.L       R14,@-R15
    000001B2 2FD6                   MOV.L       R13,@-R15
    000001B4 2FC6                   MOV.L       R12,@-R15
    000001B6 2FB6                   MOV.L       R11,@-R15
    000001B8 2FA6                   MOV.L       R10,@-R15
    000001BA 4F22                   STS.L       PR,@-R15
      XY_paramet    55    {
      XY_paramet    56            int enter;
      XY_paramet    57            PopUpWin(5);
    000001BC D330                   MOV.L       L1052+24,R3; _PopUpWin
    000001BE 430B                   JSR         @R3
    000001C0 E405                   MOV         #5,R4
      XY_paramet    58            DispStr(48,12,"¸²¸Ç?"); //fugai
    000001C2 E50C                   MOV         #12,R5
    000001C4 D230                   MOV.L       L1052+32,R2; _DispStr
    000001C6 D62F                   MOV.L       L1052+28,R6; L567
    000001C8 420B                   JSR         @R2
    000001CA E430                   MOV         #48,R4
      XY_paramet    59            locate(7,5);Print("Yes : [F1]");
    000001CC D32F                   MOV.L       L1052+36,R3; _locate
    000001CE E505                   MOV         #5,R5
    000001D0 430B                   JSR         @R3
    000001D2 E407                   MOV         #7,R4
    000001D4 D42E                   MOV.L       L1052+40,R4; L568
    000001D6 D22F                   MOV.L       L1052+44,R2; _Print
    000001D8 420B                   JSR         @R2
    000001DA 0009                   NOP
      XY_paramet    60            locate(7,6);Print("No  : [F6]");
    000001DC D32B                   MOV.L       L1052+36,R3; _locate
    000001DE E506                   MOV         #6,R5
    000001E0 430B                   JSR         @R3
    000001E2 E407                   MOV         #7,R4
    000001E4 D42C                   MOV.L       L1052+48,R4; L569
    000001E6 D22B                   MOV.L       L1052+44,R2; _Print
    000001E8 420B                   JSR         @R2
    000001EA 0009                   NOP
    000001EC DA2B                   MOV.L       L1052+52,R10; _GetKey
    000001EE EB00                   MOV         #0,R11
    000001F0 9C3B                   MOV.W       L1052+2,R12; H'753E
    000001F2 ED01                   MOV         #1,R13
    000001F4 DE2A                   MOV.L       L1052+56,R14; _key
      XY_paramet    61            do{
      XY_paramet    62                    GetKey(&key);
    000001F6 D42A                   MOV.L       L1052+56,R4; _key
    000001F8 4A0B                   JSR         @R10
    000001FA 0009                   NOP
      XY_paramet    63                    if (key==KEY_CTRL_F6 || key==KEY_CTRL_EXIT){enter =0 ;break;}
    000001FC 63E2                   MOV.L       @R14,R3
    000001FE 33C0                   CMP/EQ      R12,R3
    00000200 8903                   BT          L904
    00000202 9133                   MOV.W       L1052+4,R1 ; H'7532
    00000204 62E2                   MOV.L       @R14,R2
    00000206 3210                   CMP/EQ      R1,R2
    00000208 8B01                   BF          L903
    0000020A              L904:                             
    0000020A A001                   BRA         L905




SH SERIES C/C++ Compiler (Ver. 6.0C)                                                                 01-Jun-2015 13:45:28  PAGE    7


SCT OFFSET   CODE       C LABEL     INSTRUCTION OPERAND    COMMENT

    0000020C 64B3                   MOV         R11,R4
    0000020E              L903:                             
      XY_paramet    64                    else if (KEY_CTRL_F1) {enter = 1;break;}
    0000020E 64D3                   MOV         R13,R4
    00000210              L905:                             
      XY_paramet    65            }while(1);
      XY_paramet    66            return enter;
      XY_paramet    67    }
    00000210 4F26                   LDS.L       @R15+,PR
    00000212 6043                   MOV         R4,R0
    00000214 6AF6                   MOV.L       @R15+,R10
    00000216 6BF6                   MOV.L       @R15+,R11
    00000218 6CF6                   MOV.L       @R15+,R12
    0000021A 6DF6                   MOV.L       @R15+,R13
    0000021C 000B                   RTS
    0000021E 6EF6                   MOV.L       @R15+,R14
      XY_paramet    68    int WheterSavaAS()
    00000220              _WheterSavaAS:                   ; function: WheterSavaAS
                                                           ; frame size=48
                                                           ; used runtime library name:
                                                           ; __slow_mvn, __slow_strcpy
    00000220 2FE6                   MOV.L       R14,@-R15
    00000222 2FD6                   MOV.L       R13,@-R15
    00000224 2FC6                   MOV.L       R12,@-R15
    00000226 2FB6                   MOV.L       R11,@-R15
    00000228 2FA6                   MOV.L       R10,@-R15
    0000022A 2F96                   MOV.L       R9,@-R15
    0000022C 4F22                   STS.L       PR,@-R15
    0000022E 7FF0                   ADD         #-16,R15
      XY_paramet    69    {
      XY_paramet    70            char str[13]="";
    00000230 D21C                   MOV.L       L1052+60,R2; L576
    00000232 6EF3                   MOV         R15,R14
    00000234 D31C                   MOV.L       L1052+64,R3; __slow_mvn
    00000236 61F3                   MOV         R15,R1
    00000238 430B                   JSR         @R3
    0000023A E00D                   MOV         #13,R0
      XY_paramet    71            int suc,enter,i;
      XY_paramet    72            for (i=0;i<13 && setup_data.route_name[i] != '.';++i)
    0000023C DC1B                   MOV.L       L1052+68,R12; _setup_data
    0000023E E600                   MOV         #0,R6
    00000240 E50D                   MOV         #13,R5
    00000242 A007                   BRA         L909
    00000244 6463                   MOV         R6,R4
    00000246              L910:                             
      XY_paramet    73                    str[i] = setup_data.route_name[i];
    00000246 6043                   MOV         R4,R0
    00000248 63C3                   MOV         R12,R3
    0000024A 731E                   ADD         #30,R3
    0000024C 334C                   ADD         R4,R3
    0000024E 7401                   ADD         #1,R4
    00000250 6330                   MOV.B       @R3,R3
    00000252 0E34                   MOV.B       R3,@(R0,R14)
    00000254              L909:                             
    00000254 3453                   CMP/GE      R5,R4
    00000256 8903                   BT          L911
    00000258 D015                   MOV.L       L1052+72,R0; H'0000001E+_setup_data




SH SERIES C/C++ Compiler (Ver. 6.0C)                                                                 01-Jun-2015 13:45:28  PAGE    8


SCT OFFSET   CODE       C LABEL     INSTRUCTION OPERAND    COMMENT

    0000025A 004C                   MOV.B       @(R0,R4),R0
    0000025C 882E                   CMP/EQ      #46,R0
    0000025E 8BF2                   BF          L910
    00000260              L911:                             
      XY_paramet    74            str[i>=13 ? 12 : i] = 0;
    00000260 3453                   CMP/GE      R5,R4
    00000262 8B27                   BF          L912
    00000264 A027                   BRA         L913
    00000266 E00C                   MOV         #12,R0
    00000268              L1052:                            
    00000268 03E7                   .DATA.W     H'03E7
    0000026A 753E                   .DATA.W     H'753E
    0000026C 7532                   .DATA.W     H'7532
    0000026E 0000                   .DATA.W     0
    00000270 <00000000>             .DATA.L     L563
    00000274 <00000000>             .DATA.L     _sprintf
    00000278 <00000000>             .DATA.L     _Bdisp_AreaReverseVRAM
    0000027C <00000000>             .DATA.L     _PrintMini
    00000280 <00000000>             .DATA.L     _PopUpWin
    00000284 <00000000>             .DATA.L     L567
    00000288 <00000000>             .DATA.L     _DispStr
    0000028C <00000000>             .DATA.L     _locate
    00000290 <00000000>             .DATA.L     L568
    00000294 <00000000>             .DATA.L     _Print
    00000298 <00000000>             .DATA.L     L569
    0000029C <00000000>             .DATA.L     _GetKey
    000002A0 <00000000>             .DATA.L     _key
    000002A4 <00000000>             .DATA.L     L576
    000002A8 <00000000>             .DATA.L     __slow_mvn
    000002AC <00000000>             .DATA.L     _setup_data
    000002B0 <0000001E>             .DATA.L     H'0000001E+_setup_data
    000002B4              L912:                             
    000002B4 6043                   MOV         R4,R0
    000002B6              L913:                             
    000002B6 0E64                   MOV.B       R6,@(R0,R14)
      XY_paramet    75            PopUpWin(4);
    000002B8 D21F                   MOV.L       L1053+4,R2 ; _PopUpWin
    000002BA 420B                   JSR         @R2
    000002BC E404                   MOV         #4,R4
      XY_paramet    76            DispStr(24,8,"\xce\xc4\xbc\xfe\xc3\xfb(*.srd)");//file_name
    000002BE E508                   MOV         #8,R5
    000002C0 D31F                   MOV.L       L1053+12,R3; _DispStr
    000002C2 D61E                   MOV.L       L1053+8,R6 ; L580
    000002C4 430B                   JSR         @R3
    000002C6 E418                   MOV         #24,R4
    000002C8 D91E                   MOV.L       L1053+16,R9; _InputString
    000002CA 6AE3                   MOV         R14,R10
    000002CC 9B32                   MOV.W       L1053,R11  ; H'7534
    000002CE 6DB3                   MOV         R11,R13
    000002D0 7DFE                   ADD         #-2,R13
      XY_paramet    77            do
    000002D2              L914:                             
      XY_paramet    78            {
      XY_paramet    79                    suc = InputString(24,24,str,1,8);
    000002D2 E208                   MOV         #8,R2
    000002D4 2F26                   MOV.L       R2,@-R15
    000002D6 E701                   MOV         #1,R7




SH SERIES C/C++ Compiler (Ver. 6.0C)                                                                 01-Jun-2015 13:45:28  PAGE    9


SCT OFFSET   CODE       C LABEL     INSTRUCTION OPERAND    COMMENT

    000002D8 66E3                   MOV         R14,R6
    000002DA E518                   MOV         #24,R5
    000002DC 490B                   JSR         @R9
    000002DE 6453                   MOV         R5,R4
    000002E0 6403                   MOV         R0,R4
      XY_paramet    80                    if (suc==KEY_CTRL_EXIT) break;
    000002E2 34D0                   CMP/EQ      R13,R4
    000002E4 8D1D                   BT/S        L919
    000002E6 7F04                   ADD         #4,R15
      XY_paramet    81                    if (! str[0]) continue;
    000002E8 63A0                   MOV.B       @R10,R3
    000002EA 2338                   TST         R3,R3
      XY_paramet    82            }while(suc!=KEY_CTRL_EXE);
    000002EC 34B0                   CMP/EQ      R11,R4
    000002EE 8BF0                   BF          L914
      XY_paramet    83            if(suc!=KEY_CTRL_EXIT)
    000002F0 34D0                   CMP/EQ      R13,R4
    000002F2 8916                   BT          L919
      XY_paramet    84            {
      XY_paramet    85                    enter = 1;
      XY_paramet    86                    strcat(str,".srd");
    000002F4 D514                   MOV.L       L1053+20,R5; L583
    000002F6 ED01                   MOV         #1,R13
    000002F8 D214                   MOV.L       L1053+24,R2; _strcat
    000002FA 420B                   JSR         @R2
    000002FC 64E3                   MOV         R14,R4
      XY_paramet    87                    if (TestSRDFile(str))
    000002FE D314                   MOV.L       L1053+28,R3; _TestSRDFile
    00000300 430B                   JSR         @R3
    00000302 64E3                   MOV         R14,R4
    00000304 2008                   TST         R0,R0
    00000306 8902                   BT          L920
      XY_paramet    88                    {
      XY_paramet    89                            enter = WhetherCover();
    00000308 BF52                   BSR         _WhetherCover
    0000030A 0009                   NOP
    0000030C 6D03                   MOV         R0,R13
    0000030E              L920:                             
      XY_paramet    90                    }
      XY_paramet    91                    if (enter)
    0000030E 2DD8                   TST         R13,R13
    00000310 8907                   BT          L919
      XY_paramet    92                    {
      XY_paramet    93                            SaveSRDFile(str);
    00000312 D310                   MOV.L       L1053+32,R3; _SaveSRDFile
    00000314 430B                   JSR         @R3
    00000316 64E3                   MOV         R14,R4
      XY_paramet    94                            strcpy(setup_data.route_name,str);
    00000318 D20F                   MOV.L       L1053+36,R2; __slow_strcpy
    0000031A 61E3                   MOV         R14,R1
    0000031C 60C3                   MOV         R12,R0
    0000031E 420B                   JSR         @R2
    00000320 701E                   ADD         #30,R0
    00000322              L919:                             
      XY_paramet    95                    }
      XY_paramet    96            }
      XY_paramet    97    }




SH SERIES C/C++ Compiler (Ver. 6.0C)                                                                 01-Jun-2015 13:45:28  PAGE   10


SCT OFFSET   CODE       C LABEL     INSTRUCTION OPERAND    COMMENT

    00000322 7F10                   ADD         #16,R15
    00000324 4F26                   LDS.L       @R15+,PR
    00000326 69F6                   MOV.L       @R15+,R9
    00000328 6AF6                   MOV.L       @R15+,R10
    0000032A 6BF6                   MOV.L       @R15+,R11
    0000032C 6CF6                   MOV.L       @R15+,R12
    0000032E 6DF6                   MOV.L       @R15+,R13
    00000330 000B                   RTS
    00000332 6EF6                   MOV.L       @R15+,R14
    00000334              L1053:                            
    00000334 7534                   .DATA.W     H'7534
    00000336 0000                   .DATA.W     0
    00000338 <00000000>             .DATA.L     _PopUpWin
    0000033C <00000000>             .DATA.L     L580
    00000340 <00000000>             .DATA.L     _DispStr
    00000344 <00000000>             .DATA.L     _InputString
    00000348 <00000000>             .DATA.L     L583
    0000034C <00000000>             .DATA.L     _strcat
    00000350 <00000000>             .DATA.L     _TestSRDFile
    00000354 <00000000>             .DATA.L     _SaveSRDFile
    00000358 <00000000>             .DATA.L     __slow_strcpy
      XY_paramet    98    
      XY_paramet    99    int SelSetupF5()
    0000035C              _SelSetupF5:                     ; function: SelSetupF5
                                                           ; frame size=68
                                                           ; used runtime library name:
                                                           ; __slow_mvn, __slow_strcpy
    0000035C 2FE6                   MOV.L       R14,@-R15
    0000035E 2FD6                   MOV.L       R13,@-R15
    00000360 2FC6                   MOV.L       R12,@-R15
    00000362 2FB6                   MOV.L       R11,@-R15
    00000364 2FA6                   MOV.L       R10,@-R15
      XY_paramet   100    {
      XY_paramet   101            index = 0;
    00000366 EB00                   MOV         #0,R11
    00000368 DD44                   MOV.L       L1054+10,R13; _index
    0000036A 2F96                   MOV.L       R9,@-R15
    0000036C 2F86                   MOV.L       R8,@-R15
      XY_paramet   102            need_redraw = REDRAW_PART;
    0000036E E901                   MOV         #1,R9
    00000370 D343                   MOV.L       L1054+14,R3; _need_redraw
    00000372 4F22                   STS.L       PR,@-R15
      XY_paramet   103            SetMyFont(&stHz12x12,&stAsc6x12);
    00000374 D543                   MOV.L       L1054+18,R5; _stAsc6x12
    00000376 7FE8                   ADD         #-24,R15
    00000378 D443                   MOV.L       L1054+22,R4; _stHz12x12
    0000037A 2DB2                   MOV.L       R11,@R13
    0000037C D243                   MOV.L       L1054+26,R2; _SetMyFont
    0000037E 420B                   JSR         @R2
    00000380 2392                   MOV.L       R9,@R3
    00000382 6EF3                   MOV         R15,R14
    00000384 D842                   MOV.L       L1054+30,R8; _locate
    00000386 7E08                   ADD         #8,R14
    00000388 DA42                   MOV.L       L1054+34,R10; _setup_data
    0000038A 63E3                   MOV         R14,R3
    0000038C DC42                   MOV.L       L1054+38,R12; _key
    0000038E 1F31                   MOV.L       R3,@(4,R15)




SH SERIES C/C++ Compiler (Ver. 6.0C)                                                                 01-Jun-2015 13:45:28  PAGE   11


SCT OFFSET   CODE       C LABEL     INSTRUCTION OPERAND    COMMENT

      XY_paramet   104            
      XY_paramet   105            while(1)
    00000390              L923:                             
      XY_paramet   106            {
      XY_paramet   107                    if (need_redraw == REDRAW_PART)
    00000390 D13B                   MOV.L       L1054+14,R1; _need_redraw
    00000392 6012                   MOV.L       @R1,R0
    00000394 8801                   CMP/EQ      #1,R0
    00000396 8B35                   BF          L924
      XY_paramet   108                    {
      XY_paramet   109                            PopUpWin(6);
    00000398 D240                   MOV.L       L1054+42,R2; _PopUpWin
    0000039A 420B                   JSR         @R2
    0000039C E406                   MOV         #6,R4
      XY_paramet   110                            DrawPicture(32,9,       16,     10,     G_ICON_SAVE);   DispStr(48,8,"±£´æÎª ");
    0000039E E70A                   MOV         #10,R7
    000003A0 D240                   MOV.L       L1054+50,R2; _DrawPicture
    000003A2 E610                   MOV         #16,R6
    000003A4 D33E                   MOV.L       L1054+46,R3; _G_ICON_SAVE
    000003A6 E509                   MOV         #9,R5
    000003A8 2F36                   MOV.L       R3,@-R15
    000003AA 420B                   JSR         @R2
    000003AC E420                   MOV         #32,R4
    000003AE E508                   MOV         #8,R5
    000003B0 D33E                   MOV.L       L1054+58,R3; _DispStr
    000003B2 D63D                   MOV.L       L1054+54,R6; L590
    000003B4 430B                   JSR         @R3
    000003B6 E430                   MOV         #48,R4
      XY_paramet   111                            DrawPicture(32,25,      16,     10,     G_ICON_OPEN);   DispStr(48,24,"´ò¿ª ");
    000003B8 D23D                   MOV.L       L1054+62,R2; _G_ICON_OPEN
    000003BA E70A                   MOV         #10,R7
    000003BC D339                   MOV.L       L1054+50,R3; _DrawPicture
    000003BE E610                   MOV         #16,R6
    000003C0 2F26                   MOV.L       R2,@-R15
    000003C2 E519                   MOV         #25,R5
    000003C4 430B                   JSR         @R3
    000003C6 E420                   MOV         #32,R4
    000003C8 D63A                   MOV.L       L1054+66,R6; L591
    000003CA E518                   MOV         #24,R5
    000003CC D237                   MOV.L       L1054+58,R2; _DispStr
    000003CE 420B                   JSR         @R2
    000003D0 E430                   MOV         #48,R4
      XY_paramet   112                            DrawPicture(32,41,      16,     10,     G_ICON_OTHER);  DispStr(48,40,"ÐÂ½¨ ");
    000003D2 E70A                   MOV         #10,R7
    000003D4 D233                   MOV.L       L1054+50,R2; _DrawPicture
    000003D6 E610                   MOV         #16,R6
    000003D8 D337                   MOV.L       L1054+70,R3; _G_ICON_OTHER
    000003DA E529                   MOV         #41,R5
    000003DC 2F36                   MOV.L       R3,@-R15
    000003DE 420B                   JSR         @R2
    000003E0 E420                   MOV         #32,R4
    000003E2 7F0C                   ADD         #12,R15
    000003E4 D635                   MOV.L       L1054+74,R6; L592
    000003E6 E528                   MOV         #40,R5
    000003E8 D330                   MOV.L       L1054+58,R3; _DispStr
    000003EA 430B                   JSR         @R3
    000003EC E430                   MOV         #48,R4




SH SERIES C/C++ Compiler (Ver. 6.0C)                                                                 01-Jun-2015 13:45:28  PAGE   12


SCT OFFSET   CODE       C LABEL     INSTRUCTION OPERAND    COMMENT

      XY_paramet   113                            
      XY_paramet   114                            Bdisp_AreaReverseVRAM(14,8+16*index,112,20+index*16);
    000003EE E670                   MOV         #112,R6
    000003F0 D333                   MOV.L       L1054+78,R3; _Bdisp_AreaReverseVRAM
    000003F2 67D2                   MOV.L       @R13,R7
    000003F4 4708                   SHLL2       R7
    000003F6 4708                   SHLL2       R7
    000003F8 2F72                   MOV.L       R7,@R15
    000003FA 7714                   ADD         #20,R7
    000003FC 65F2                   MOV.L       @R15,R5
    000003FE 7508                   ADD         #8,R5
    00000400 430B                   JSR         @R3
    00000402 E40E                   MOV         #14,R4
    00000404              L924:                             
      XY_paramet   115                    }
      XY_paramet   116                    GetKey(&key);
    00000404 D424                   MOV.L       L1054+38,R4; _key
    00000406 D22F                   MOV.L       L1054+82,R2; _GetKey
    00000408 420B                   JSR         @R2
    0000040A 0009                   NOP
      XY_paramet   117                    if (key==KEY_CTRL_UP)   {if(--index<0) index = 2;need_redraw = REDRAW_PART;}
    0000040C 9331                   MOV.W       L1054,R3   ; H'7542
    0000040E 62C2                   MOV.L       @R12,R2
    00000410 3230                   CMP/EQ      R3,R2
    00000412 8B08                   BF          L925
    00000414 60D2                   MOV.L       @R13,R0
    00000416 70FF                   ADD         #-1,R0
    00000418 4011                   CMP/PZ      R0
    0000041A 8D02                   BT/S        L926
    0000041C 2D02                   MOV.L       R0,@R13
    0000041E E102                   MOV         #2,R1
    00000420 2D12                   MOV.L       R1,@R13
    00000422              L926:                             
    00000422 D317                   MOV.L       L1054+14,R3; _need_redraw
    00000424 2392                   MOV.L       R9,@R3
    00000426              L925:                             
      XY_paramet   118                    if (key==KEY_CTRL_DOWN) {if(++index>2) index = 0;need_redraw = REDRAW_PART;}
    00000426 9225                   MOV.W       L1054+2,R2 ; H'7547
    00000428 61C2                   MOV.L       @R12,R1
    0000042A 3120                   CMP/EQ      R2,R1
    0000042C 8B08                   BF          L927
    0000042E E302                   MOV         #2,R3
    00000430 60D2                   MOV.L       @R13,R0
    00000432 7001                   ADD         #1,R0
    00000434 3037                   CMP/GT      R3,R0
    00000436 8F01                   BF/S        L928
    00000438 2D02                   MOV.L       R0,@R13
    0000043A 2DB2                   MOV.L       R11,@R13
    0000043C              L928:                             
    0000043C D310                   MOV.L       L1054+14,R3; _need_redraw
    0000043E 2392                   MOV.L       R9,@R3
    00000440              L927:                             
    00000440 64C2                   MOV.L       @R12,R4
    00000442 9218                   MOV.W       L1054+4,R2 ; H'7532
    00000444 3420                   CMP/EQ      R2,R4
    00000446 8B01                   BF          L1055
    00000448 A18E                   BRA         __$EXIT$613




SH SERIES C/C++ Compiler (Ver. 6.0C)                                                                 01-Jun-2015 13:45:28  PAGE   13


SCT OFFSET   CODE       C LABEL     INSTRUCTION OPERAND    COMMENT

    0000044A 0009                   NOP
    0000044C              L1055:                            
      XY_paramet   119                    if (key==KEY_CTRL_EXIT) break;
      XY_paramet   120                    if (key==KEY_CTRL_EXE)
    0000044C 9314                   MOV.W       L1054+6,R3 ; H'7534
    0000044E 3430                   CMP/EQ      R3,R4
    00000450 8B9E                   BF          L923
      XY_paramet   121                    {
      XY_paramet   122                            char str[13]="";
    00000452 61F3                   MOV         R15,R1
    00000454 D21C                   MOV.L       L1054+86,R2; L597
    00000456 7108                   ADD         #8,R1
    00000458 D31C                   MOV.L       L1054+90,R3; __slow_mvn
    0000045A 430B                   JSR         @R3
    0000045C E00D                   MOV         #13,R0
      XY_paramet   123                            int suc,enter,i;
      XY_paramet   124                            switch(index)
    0000045E 60D2                   MOV.L       @R13,R0
    00000460 8800                   CMP/EQ      #0,R0
    00000462 893A                   BT          L795
    00000464 8801                   CMP/EQ      #1,R0
    00000466 8B01                   BF          L1056
    00000468 A0D2                   BRA         L796
    0000046A 0009                   NOP
    0000046C              L1056:                            
    0000046C 8802                   CMP/EQ      #2,R0
    0000046E A02F                   BRA         L1042
    00000470 0009                   NOP
    00000472              L1054:                            
    00000472 7542                   .DATA.W     H'7542
    00000474 7547                   .DATA.W     H'7547
    00000476 7532                   .DATA.W     H'7532
    00000478 7534                   .DATA.W     H'7534
    0000047A 0000                   .DATA.W     0
    0000047C <00000000>             .DATA.L     _index
    00000480 <00000000>             .DATA.L     _need_redraw
    00000484 <00000000>             .DATA.L     _stAsc6x12
    00000488 <00000000>             .DATA.L     _stHz12x12
    0000048C <00000000>             .DATA.L     _SetMyFont
    00000490 <00000000>             .DATA.L     _locate
    00000494 <00000000>             .DATA.L     _setup_data
    00000498 <00000000>             .DATA.L     _key
    0000049C <00000000>             .DATA.L     _PopUpWin
    000004A0 <00000000>             .DATA.L     _G_ICON_SAVE
    000004A4 <00000000>             .DATA.L     _DrawPicture
    000004A8 <00000000>             .DATA.L     L590
    000004AC <00000000>             .DATA.L     _DispStr
    000004B0 <00000000>             .DATA.L     _G_ICON_OPEN
    000004B4 <00000000>             .DATA.L     L591
    000004B8 <00000000>             .DATA.L     _G_ICON_OTHER
    000004BC <00000000>             .DATA.L     L592
    000004C0 <00000000>             .DATA.L     _Bdisp_AreaReverseVRAM
    000004C4 <00000000>             .DATA.L     _GetKey
    000004C8 <00000000>             .DATA.L     L597
    000004CC <00000000>             .DATA.L     __slow_mvn
    000004D0              L1042:                            
    000004D0 8B01                   BF          L1057




SH SERIES C/C++ Compiler (Ver. 6.0C)                                                                 01-Jun-2015 13:45:28  PAGE   14


SCT OFFSET   CODE       C LABEL     INSTRUCTION OPERAND    COMMENT

    000004D2 A0C9                   BRA         L798
    000004D4 0009                   NOP
    000004D6              L1057:                            
    000004D6 A11C                   BRA         L932
    000004D8 0009                   NOP
    000004DA              L795:                            ; case label 
      XY_paramet   125                            {
      XY_paramet   126                                    case 0:
      XY_paramet   127                                            
      XY_paramet   128                                            for (i=0;i<13 && setup_data.route_name[i] != '.';++i)
    000004DA A007                   BRA         L933
    000004DC 64B3                   MOV         R11,R4
    000004DE              L934:                             
      XY_paramet   129                                                    str[i] = setup_data.route_name[i];
    000004DE 6043                   MOV         R4,R0
    000004E0 63A3                   MOV         R10,R3
    000004E2 731E                   ADD         #30,R3
    000004E4 334C                   ADD         R4,R3
    000004E6 7401                   ADD         #1,R4
    000004E8 6330                   MOV.B       @R3,R3
    000004EA 0E34                   MOV.B       R3,@(R0,R14)
    000004EC              L933:                             
    000004EC E20D                   MOV         #13,R2
    000004EE 3423                   CMP/GE      R2,R4
    000004F0 8903                   BT          L935
    000004F2 D037                   MOV.L       L1058+6,R0 ; H'0000001E+_setup_data
    000004F4 004C                   MOV.B       @(R0,R4),R0
    000004F6 882E                   CMP/EQ      #46,R0
    000004F8 8BF1                   BF          L934
    000004FA              L935:                             
      XY_paramet   130                                            str[i>=13 ? 12 : i] = 0;
    000004FA E30D                   MOV         #13,R3
    000004FC 3433                   CMP/GE      R3,R4
    000004FE 8B01                   BF          L936
    00000500 A001                   BRA         L937
    00000502 E20C                   MOV         #12,R2
    00000504              L936:                             
    00000504 6243                   MOV         R4,R2
    00000506              L937:                             
    00000506 32EC                   ADD         R14,R2
    00000508 22B0                   MOV.B       R11,@R2
      XY_paramet   131                                            PopUpWin(4);
    0000050A D232                   MOV.L       L1058+10,R2; _PopUpWin
    0000050C 420B                   JSR         @R2
    0000050E E404                   MOV         #4,R4
      XY_paramet   132                                            DispStr(24,8,"\xce\xc4\xbc\xfe\xc3\xfb(*.srd)");//file_name
    00000510 D631                   MOV.L       L1058+14,R6; L580
    00000512 E508                   MOV         #8,R5
    00000514 D331                   MOV.L       L1058+18,R3; _DispStr
    00000516 430B                   JSR         @R3
    00000518 E418                   MOV         #24,R4
      XY_paramet   133                                            do
    0000051A              L938:                             
      XY_paramet   134                                            {
      XY_paramet   135                                                    suc = InputString(24,24,str,1,8);
    0000051A E208                   MOV         #8,R2
    0000051C D330                   MOV.L       L1058+22,R3; _InputString




SH SERIES C/C++ Compiler (Ver. 6.0C)                                                                 01-Jun-2015 13:45:28  PAGE   15


SCT OFFSET   CODE       C LABEL     INSTRUCTION OPERAND    COMMENT

    0000051E E701                   MOV         #1,R7
    00000520 2F26                   MOV.L       R2,@-R15
    00000522 66E3                   MOV         R14,R6
    00000524 E518                   MOV         #24,R5
    00000526 430B                   JSR         @R3
    00000528 6453                   MOV         R5,R4
    0000052A 6403                   MOV         R0,R4
      XY_paramet   136                                                    if (suc==KEY_CTRL_EXIT) break;
    0000052C 924D                   MOV.W       L1058,R2   ; H'7532
    0000052E 3420                   CMP/EQ      R2,R4
    00000530 8F02                   BF/S        L1059
    00000532 7F04                   ADD         #4,R15
    00000534 A0ED                   BRA         L932
    00000536 0009                   NOP
    00000538              L1059:                            
      XY_paramet   137                                                    if (! str[0]) continue;
    00000538 53F1                   MOV.L       @(4,R15),R3
    0000053A 6230                   MOV.B       @R3,R2
      XY_paramet   138                                            }while(suc!=KEY_CTRL_EXE);
    0000053C 9146                   MOV.W       L1058+2,R1 ; H'7534
    0000053E 2228                   TST         R2,R2
    00000540 3410                   CMP/EQ      R1,R4
    00000542 8BEA                   BF          L938
      XY_paramet   139                                            if(suc!=KEY_CTRL_EXIT)
    00000544 9241                   MOV.W       L1058,R2   ; H'7532
    00000546 3420                   CMP/EQ      R2,R4
    00000548 8B01                   BF          L1060
    0000054A A0E2                   BRA         L932
    0000054C 0009                   NOP
    0000054E              L1060:                            
      XY_paramet   140                                            {
      XY_paramet   141                                                    enter = 1;
    0000054E 2F92                   MOV.L       R9,@R15
      XY_paramet   142                                                    strcat(str,".srd");
    00000550 D524                   MOV.L       L1058+26,R5; L583
    00000552 D325                   MOV.L       L1058+30,R3; _strcat
    00000554 430B                   JSR         @R3
    00000556 64E3                   MOV         R14,R4
      XY_paramet   143                                                    if (TestSRDFile(str))
    00000558 D224                   MOV.L       L1058+34,R2; _TestSRDFile
    0000055A 420B                   JSR         @R2
    0000055C 64E3                   MOV         R14,R4
    0000055E 2008                   TST         R0,R0
    00000560 8924                   BT          L944
      XY_paramet   144                                                    {
      XY_paramet   145                                                            PopUpWin(5);
    00000562 D21C                   MOV.L       L1058+10,R2; _PopUpWin
    00000564 420B                   JSR         @R2
    00000566 E405                   MOV         #5,R4
      XY_paramet   146                                                            DispStr(48,12,"¸²¸Ç?"); //fugai
    00000568 D621                   MOV.L       L1058+38,R6; L567
    0000056A E50C                   MOV         #12,R5
    0000056C D31B                   MOV.L       L1058+18,R3; _DispStr
    0000056E 430B                   JSR         @R3
    00000570 E430                   MOV         #48,R4
      XY_paramet   147                                                            locate(7,5);Print("Yes : [F1]");
    00000572 E505                   MOV         #5,R5




SH SERIES C/C++ Compiler (Ver. 6.0C)                                                                 01-Jun-2015 13:45:28  PAGE   16


SCT OFFSET   CODE       C LABEL     INSTRUCTION OPERAND    COMMENT

    00000574 480B                   JSR         @R8
    00000576 E407                   MOV         #7,R4
    00000578 D41E                   MOV.L       L1058+42,R4; L568
    0000057A D21F                   MOV.L       L1058+46,R2; _Print
    0000057C 420B                   JSR         @R2
    0000057E 0009                   NOP
      XY_paramet   148                                                            locate(7,6);Print("No  : [F6]");
    00000580 E506                   MOV         #6,R5
    00000582 480B                   JSR         @R8
    00000584 E407                   MOV         #7,R4
    00000586 D41D                   MOV.L       L1058+50,R4; L569
    00000588 D31B                   MOV.L       L1058+46,R3; _Print
    0000058A 430B                   JSR         @R3
    0000058C 0009                   NOP
      XY_paramet   149                                                            do{
      XY_paramet   150                                                                    GetKey(&key);
    0000058E D41C                   MOV.L       L1058+54,R4; _key
    00000590 D21C                   MOV.L       L1058+58,R2; _GetKey
    00000592 420B                   JSR         @R2
    00000594 0009                   NOP
      XY_paramet   151                                                                    if (key==KEY_CTRL_F6 || key==KEY_CTRL_EXIT
                         +){enter =0 ;break;}
    00000596 931A                   MOV.W       L1058+4,R3 ; H'753E
    00000598 62C2                   MOV.L       @R12,R2
    0000059A 3230                   CMP/EQ      R3,R2
    0000059C 8903                   BT          L947
    0000059E 9014                   MOV.W       L1058,R0   ; H'7532
    000005A0 61C2                   MOV.L       @R12,R1
    000005A2 3100                   CMP/EQ      R0,R1
    000005A4 8B01                   BF          L946
    000005A6              L947:                             
    000005A6 A001                   BRA         L944
    000005A8 2FB2                   MOV.L       R11,@R15
    000005AA              L946:                             
      XY_paramet   152                                                                    else if (KEY_CTRL_F1) {enter = 1;break;}
    000005AA 2F92                   MOV.L       R9,@R15
    000005AC              L944:                             
      XY_paramet   153                                                            }while(1);
      XY_paramet   154                                                    }
      XY_paramet   155                                                    if (enter)
    000005AC 63F2                   MOV.L       @R15,R3
    000005AE 2338                   TST         R3,R3
    000005B0 8B01                   BF          L1061
    000005B2 A0AE                   BRA         L932
    000005B4 0009                   NOP
    000005B6              L1061:                            
      XY_paramet   156                                                    {
      XY_paramet   157                                                            SaveSRDFile(str);
    000005B6 D314                   MOV.L       L1058+62,R3; _SaveSRDFile
    000005B8 430B                   JSR         @R3
    000005BA 64E3                   MOV         R14,R4
      XY_paramet   158                                                            strcpy(setup_data.route_name,str);
    000005BC D213                   MOV.L       L1058+66,R2; __slow_strcpy
    000005BE 61E3                   MOV         R14,R1
    000005C0 60A3                   MOV         R10,R0
    000005C2 420B                   JSR         @R2
    000005C4 701E                   ADD         #30,R0




SH SERIES C/C++ Compiler (Ver. 6.0C)                                                                 01-Jun-2015 13:45:28  PAGE   17


SCT OFFSET   CODE       C LABEL     INSTRUCTION OPERAND    COMMENT

      XY_paramet   159                                                    }
      XY_paramet   160                                            }     
      XY_paramet   161                                            break;
    000005C6 A0A4                   BRA         L932
    000005C8 0009                   NOP
    000005CA              L1058:                            
    000005CA 7532                   .DATA.W     H'7532
    000005CC 7534                   .DATA.W     H'7534
    000005CE 753E                   .DATA.W     H'753E
    000005D0 <0000001E>             .DATA.L     H'0000001E+_setup_data
    000005D4 <00000000>             .DATA.L     _PopUpWin
    000005D8 <00000000>             .DATA.L     L580
    000005DC <00000000>             .DATA.L     _DispStr
    000005E0 <00000000>             .DATA.L     _InputString
    000005E4 <00000000>             .DATA.L     L583
    000005E8 <00000000>             .DATA.L     _strcat
    000005EC <00000000>             .DATA.L     _TestSRDFile
    000005F0 <00000000>             .DATA.L     L567
    000005F4 <00000000>             .DATA.L     L568
    000005F8 <00000000>             .DATA.L     _Print
    000005FC <00000000>             .DATA.L     L569
    00000600 <00000000>             .DATA.L     _key
    00000604 <00000000>             .DATA.L     _GetKey
    00000608 <00000000>             .DATA.L     _SaveSRDFile
    0000060C <00000000>             .DATA.L     __slow_strcpy
    00000610              L796:                            ; case label 
      XY_paramet   162                                    case 1:
      XY_paramet   163                                            suc = SelectFiles (str);
    00000610 D142                   MOV.L       L1062+4,R1 ; _SelectFiles
    00000612 410B                   JSR         @R1
    00000614 64E3                   MOV         R14,R4
      XY_paramet   164                                            if (suc==-1)
    00000616 88FF                   CMP/EQ      #-1,R0
    00000618 8F0E                   BF/S        L952
    0000061A 2F02                   MOV.L       R0,@R15
      XY_paramet   165                                            {
      XY_paramet   166                                                    PopUpWin(1);
    0000061C D240                   MOV.L       L1062+8,R2 ; _PopUpWin
    0000061E 420B                   JSR         @R2
    00000620 E401                   MOV         #1,R4
      XY_paramet   167                                                    locate(7,4);Print("No File!");
    00000622 E504                   MOV         #4,R5
    00000624 480B                   JSR         @R8
    00000626 E407                   MOV         #7,R4
    00000628 D43E                   MOV.L       L1062+12,R4; L610
    0000062A D33F                   MOV.L       L1062+16,R3; _Print
    0000062C 430B                   JSR         @R3
    0000062E 0009                   NOP
      XY_paramet   168                                                    GetKey(&key);
    00000630 D43E                   MOV.L       L1062+20,R4; _key
    00000632 D23F                   MOV.L       L1062+24,R2; _GetKey
    00000634 420B                   JSR         @R2
    00000636 0009                   NOP
    00000638              L952:                             
      XY_paramet   169                                            }
      XY_paramet   170                                            if(suc==1)
    00000638 60F2                   MOV.L       @R15,R0




SH SERIES C/C++ Compiler (Ver. 6.0C)                                                                 01-Jun-2015 13:45:28  PAGE   18


SCT OFFSET   CODE       C LABEL     INSTRUCTION OPERAND    COMMENT

    0000063A 8801                   CMP/EQ      #1,R0
    0000063C 8B14                   BF          L798
      XY_paramet   171                                            {
      XY_paramet   172                                                    LoadSRDFile (str);
    0000063E D23D                   MOV.L       L1062+28,R2; _LoadSRDFile
    00000640 420B                   JSR         @R2
    00000642 64E3                   MOV         R14,R4
      XY_paramet   173                                                    strcpy(setup_data.route_name,str);
    00000644 D33C                   MOV.L       L1062+32,R3; __slow_strcpy
    00000646 61E3                   MOV         R14,R1
    00000648 60A3                   MOV         R10,R0
    0000064A 430B                   JSR         @R3
    0000064C 701E                   ADD         #30,R0
      XY_paramet   174                                                    if(LoadSRDFile (setup_data.route_name)==1)
    0000064E 64A3                   MOV         R10,R4
    00000650 D238                   MOV.L       L1062+28,R2; _LoadSRDFile
    00000652 420B                   JSR         @R2
    00000654 741E                   ADD         #30,R4
    00000656 8801                   CMP/EQ      #1,R0
    00000658 8901                   BT          L1063
    0000065A A085                   BRA         __$EXIT$613
    0000065C 0009                   NOP
    0000065E              L1063:                            
      XY_paramet   175                                                    SaveIniSRDFile();
    0000065E D237                   MOV.L       L1062+36,R2; _SaveIniSRDFile
    00000660 420B                   JSR         @R2
    00000662 0009                   NOP
      XY_paramet   176                                                    goto EXIT;
    00000664 A080                   BRA         __$EXIT$613
    00000666 0009                   NOP
    00000668              L798:                            ; case label 
      XY_paramet   177                                            }
      XY_paramet   178                                            
      XY_paramet   179                                    case 2:
      XY_paramet   180                                            PopUpWin(5);
    00000668 D22D                   MOV.L       L1062+8,R2 ; _PopUpWin
    0000066A 420B                   JSR         @R2
    0000066C E405                   MOV         #5,R4
      XY_paramet   181                                        DispStr(48,12,"ÐÂ½¨?"); 
    0000066E E50C                   MOV         #12,R5
    00000670 D334                   MOV.L       L1062+44,R3; _DispStr
    00000672 D633                   MOV.L       L1062+40,R6; L614
    00000674 430B                   JSR         @R3
    00000676 E430                   MOV         #48,R4
      XY_paramet   182                                        locate(7,5);Print("Yes : [F1]");
    00000678 E505                   MOV         #5,R5
    0000067A 480B                   JSR         @R8
    0000067C E407                   MOV         #7,R4
    0000067E D432                   MOV.L       L1062+48,R4; L568
    00000680 D229                   MOV.L       L1062+16,R2; _Print
    00000682 420B                   JSR         @R2
    00000684 0009                   NOP
      XY_paramet   183                                            locate(7,6);Print("No  : [F6]");
    00000686 E506                   MOV         #6,R5
    00000688 480B                   JSR         @R8
    0000068A E407                   MOV         #7,R4
    0000068C D42F                   MOV.L       L1062+52,R4; L569




SH SERIES C/C++ Compiler (Ver. 6.0C)                                                                 01-Jun-2015 13:45:28  PAGE   19


SCT OFFSET   CODE       C LABEL     INSTRUCTION OPERAND    COMMENT

    0000068E D326                   MOV.L       L1062+16,R3; _Print
    00000690 430B                   JSR         @R3
    00000692 0009                   NOP
      XY_paramet   184                                            GetKey(&key);
    00000694 D425                   MOV.L       L1062+20,R4; _key
    00000696 D226                   MOV.L       L1062+24,R2; _GetKey
    00000698 420B                   JSR         @R2
    0000069A 0009                   NOP
      XY_paramet   185                                            if (key==KEY_CTRL_F1){
    0000069C 933C                   MOV.W       L1062,R3   ; H'7539
    0000069E 62C2                   MOV.L       @R12,R2
    000006A0 3230                   CMP/EQ      R3,R2
    000006A2 8B36                   BF          L932
      XY_paramet   186                                                    PopUpWin(5);
    000006A4 D21E                   MOV.L       L1062+8,R2 ; _PopUpWin
    000006A6 420B                   JSR         @R2
    000006A8 E405                   MOV         #5,R4
      XY_paramet   187                                            DispStr(40,12,"±£´æÊý¾Ý?"); 
    000006AA E50C                   MOV         #12,R5
    000006AC D325                   MOV.L       L1062+44,R3; _DispStr
    000006AE D628                   MOV.L       L1062+56,R6; L616
    000006B0 430B                   JSR         @R3
    000006B2 E428                   MOV         #40,R4
      XY_paramet   188                                            locate(7,5);Print("Yes : [F1]");
    000006B4 E505                   MOV         #5,R5
    000006B6 480B                   JSR         @R8
    000006B8 E407                   MOV         #7,R4
    000006BA D423                   MOV.L       L1062+48,R4; L568
    000006BC D21A                   MOV.L       L1062+16,R2; _Print
    000006BE 420B                   JSR         @R2
    000006C0 0009                   NOP
      XY_paramet   189                                                locate(7,6);Print("No  : [F6]");
    000006C2 E506                   MOV         #6,R5
    000006C4 480B                   JSR         @R8
    000006C6 E407                   MOV         #7,R4
    000006C8 D420                   MOV.L       L1062+52,R4; L569
    000006CA D317                   MOV.L       L1062+16,R3; _Print
    000006CC 430B                   JSR         @R3
    000006CE 0009                   NOP
      XY_paramet   190                                                GetKey(&key);
    000006D0 D416                   MOV.L       L1062+20,R4; _key
    000006D2 D217                   MOV.L       L1062+24,R2; _GetKey
    000006D4 420B                   JSR         @R2
    000006D6 0009                   NOP
      XY_paramet   191                                                    if(key==KEY_CTRL_F1)
    000006D8 931E                   MOV.W       L1062,R3   ; H'7539
    000006DA 62C2                   MOV.L       @R12,R2
    000006DC 3230                   CMP/EQ      R3,R2
    000006DE 8B0C                   BF          L956
      XY_paramet   192                                                    {
      XY_paramet   193                                                            if(setup_data.route_name[0]==0)
    000006E0 60A3                   MOV         R10,R0
    000006E2 701E                   ADD         #30,R0
    000006E4 6200                   MOV.B       @R0,R2
    000006E6 2228                   TST         R2,R2
    000006E8 8B03                   BF          L957
      XY_paramet   194                                                {




SH SERIES C/C++ Compiler (Ver. 6.0C)                                                                 01-Jun-2015 13:45:28  PAGE   20


SCT OFFSET   CODE       C LABEL     INSTRUCTION OPERAND    COMMENT

      XY_paramet   195                                                        WheterSavaAS();
    000006EA BD99                   BSR         _WheterSavaAS
    000006EC 0009                   NOP
    000006EE A004                   BRA         L956
    000006F0 0009                   NOP
    000006F2              L957:                             
      XY_paramet   196                                                }
      XY_paramet   197                                                else
      XY_paramet   198                                                {
      XY_paramet   199                                                        SaveSRDFile(setup_data.route_name);
    000006F2 64A3                   MOV         R10,R4
    000006F4 D217                   MOV.L       L1062+60,R2; _SaveSRDFile
    000006F6 420B                   JSR         @R2
    000006F8 741E                   ADD         #30,R4
    000006FA              L956:                             
      XY_paramet   200                                                }
      XY_paramet   201                                                    }                                               
      XY_paramet   202                                                    setup_data.route_name[0]=0;
    000006FA 63A3                   MOV         R10,R3
      XY_paramet   203                                            route_initial(&route);
    000006FC D416                   MOV.L       L1062+64,R4; _route
    000006FE 731E                   ADD         #30,R3
    00000700 D216                   MOV.L       L1062+68,R2; _route_initial
    00000702 420B                   JSR         @R2
    00000704 23B0                   MOV.B       R11,@R3
      XY_paramet   204                                route_push_back(&route);
    00000706 D414                   MOV.L       L1062+64,R4; _route
    00000708 D315                   MOV.L       L1062+72,R3; _route_push_back
    0000070A 430B                   JSR         @R3
    0000070C 0009                   NOP
      XY_paramet   205                                                    goto EXIT;
    0000070E A02B                   BRA         __$EXIT$613
    00000710 0009                   NOP
    00000712              L932:                             
      XY_paramet   206                                    }   
      XY_paramet   207                                        break;
      XY_paramet   208                                            
      XY_paramet   209                                    default:break;
      XY_paramet   210                            }
      XY_paramet   211                            need_redraw = REDRAW_PART;
    00000712 D314                   MOV.L       L1062+76,R3; _need_redraw
    00000714 AE3C                   BRA         L923
    00000716 2392                   MOV.L       R9,@R3
    00000718              L1062:                            
    00000718 7539                   .DATA.W     H'7539
    0000071A 0000                   .DATA.W     0
    0000071C <00000000>             .DATA.L     _SelectFiles
    00000720 <00000000>             .DATA.L     _PopUpWin
    00000724 <00000000>             .DATA.L     L610
    00000728 <00000000>             .DATA.L     _Print
    0000072C <00000000>             .DATA.L     _key
    00000730 <00000000>             .DATA.L     _GetKey
    00000734 <00000000>             .DATA.L     _LoadSRDFile
    00000738 <00000000>             .DATA.L     __slow_strcpy
    0000073C <00000000>             .DATA.L     _SaveIniSRDFile
    00000740 <00000000>             .DATA.L     L614
    00000744 <00000000>             .DATA.L     _DispStr




SH SERIES C/C++ Compiler (Ver. 6.0C)                                                                 01-Jun-2015 13:45:28  PAGE   21


SCT OFFSET   CODE       C LABEL     INSTRUCTION OPERAND    COMMENT

    00000748 <00000000>             .DATA.L     L568
    0000074C <00000000>             .DATA.L     L569
    00000750 <00000000>             .DATA.L     L616
    00000754 <00000000>             .DATA.L     _SaveSRDFile
    00000758 <00000000>             .DATA.L     _route
    0000075C <00000000>             .DATA.L     _route_initial
    00000760 <00000000>             .DATA.L     _route_push_back
    00000764 <00000000>             .DATA.L     _need_redraw
    00000768              __$EXIT$613:                     ; label: EXIT
      XY_paramet   212                    }
      XY_paramet   213            }
      XY_paramet   214            EXIT:
      XY_paramet   215            return 0;
    00000768 E000                   MOV         #0,R0
      XY_paramet   216    }
    0000076A 7F18                   ADD         #24,R15
    0000076C 4F26                   LDS.L       @R15+,PR
    0000076E 68F6                   MOV.L       @R15+,R8
    00000770 69F6                   MOV.L       @R15+,R9
    00000772 6AF6                   MOV.L       @R15+,R10
    00000774 6BF6                   MOV.L       @R15+,R11
    00000776 6CF6                   MOV.L       @R15+,R12
    00000778 6DF6                   MOV.L       @R15+,R13
    0000077A 000B                   RTS
    0000077C 6EF6                   MOV.L       @R15+,R14
      XY_paramet   217    
      XY_paramet   218    
      XY_paramet   219    int XY_parameter()
    0000077E              _XY_parameter:                   ; function: XY_parameter
                                                           ; frame size=236
                                                           ; used runtime library name:
                                                           ; __slow_mvn, __quick_odd_mvn
    0000077E 2FE6                   MOV.L       R14,@-R15
    00000780 2FD6                   MOV.L       R13,@-R15
    00000782 ED00                   MOV         #0,R13
      XY_paramet   220    {
      XY_paramet   221            
      XY_paramet   222            char * table_label[]= {"DH","QDZH","ZDZH","X","Y","FWJ","ZX","QDBJ","ZDBJ"};
    00000784 9159                   MOV.W       L1064+2,R1 ; H'0098
    00000786 2FC6                   MOV.L       R12,@-R15
    00000788 2FB6                   MOV.L       R11,@-R15
    0000078A 2FA6                   MOV.L       R10,@-R15
    0000078C 2F96                   MOV.L       R9,@-R15
    0000078E E902                   MOV         #2,R9
    00000790 DA2B                   MOV.L       L1064+8,R10; _route
    00000792 2F86                   MOV.L       R8,@-R15
    00000794 4F22                   STS.L       PR,@-R15
    00000796 4F12                   STS.L       MACL,@-R15
    00000798 904E                   MOV.W       L1064,R0   ; H'FF44
    0000079A 3F0C                   ADD         R0,R15
    0000079C D229                   MOV.L       L1064+12,R2; L623
    0000079E 31FC                   ADD         R15,R1
    000007A0 D329                   MOV.L       L1064+16,R3; __quick_odd_mvn
    000007A2 430B                   JSR         @R3
    000007A4 E024                   MOV         #36,R0
      XY_paramet   223            char * icons[]          = {"","","","",""};
    000007A6 9149                   MOV.W       L1064+4,R1 ; H'0084




SH SERIES C/C++ Compiler (Ver. 6.0C)                                                                 01-Jun-2015 13:45:28  PAGE   22


SCT OFFSET   CODE       C LABEL     INSTRUCTION OPERAND    COMMENT

    000007A8 D228                   MOV.L       L1064+20,R2; L634
    000007AA 31FC                   ADD         R15,R1
    000007AC D326                   MOV.L       L1064+16,R3; __quick_odd_mvn
    000007AE 430B                   JSR         @R3
    000007B0 E014                   MOV         #20,R0
      XY_paramet   224            char * ch_text[]        = {"\xb5\xe3\xc3\xfb",
      XY_paramet   225                                    "Æðµã×®ºÅ",
      XY_paramet   226                                                            "ÖÕµã×®ºÅ",
      XY_paramet   227                                                            "X×ø±ê ", 
      XY_paramet   228                                                            "Y×ø±ê ",
      XY_paramet   229                                                            "·½Î»½Ç ",
      XY_paramet   230                                                            "×ªÏò ",
      XY_paramet   231                                                            "Æðµã°ë¾¶",
      XY_paramet   232                                                            "ÖÕµã°ë¾¶"};
    000007B2 61F3                   MOV         R15,R1
    000007B4 D226                   MOV.L       L1064+24,R2; L637
    000007B6 7160                   ADD         #96,R1
    000007B8 D323                   MOV.L       L1064+16,R3; __quick_odd_mvn
    000007BA 430B                   JSR         @R3
    000007BC E024                   MOV         #36,R0
      XY_paramet   233            int x = 0,y = 0,i,j,t;
    000007BE 6CD3                   MOV         R13,R12
      XY_paramet   234            int left = 0,top = 0;
    000007C0 1FD1                   MOV.L       R13,@(4,R15)
      XY_paramet   235            int refresh = REDRAW_ALL;
    000007C2 6893                   MOV         R9,R8
      XY_paramet   236            int enter,suc;
      XY_paramet   237            char str[13]="";
    000007C4 D223                   MOV.L       L1064+28,R2; L658
    000007C6 6ED3                   MOV         R13,R14
    000007C8 D323                   MOV.L       L1064+32,R3; __slow_mvn
    000007CA 61F3                   MOV         R15,R1
    000007CC 1FD2                   MOV.L       R13,@(8,R15)
    000007CE 7150                   ADD         #80,R1
    000007D0 430B                   JSR         @R3
    000007D2 E00D                   MOV         #13,R0
      XY_paramet   238            char c;
      XY_paramet   239            SetMyFont(&stHz12x12,&stAsc6x12);
    000007D4 D521                   MOV.L       L1064+36,R5; _stAsc6x12
    000007D6 D422                   MOV.L       L1064+40,R4; _stHz12x12
    000007D8 D122                   MOV.L       L1064+44,R1; _SetMyFont
    000007DA 410B                   JSR         @R1
    000007DC 0009                   NOP
    000007DE 63F3                   MOV         R15,R3
    000007E0 7340                   ADD         #64,R3
    000007E2 62F3                   MOV         R15,R2
    000007E4 1F3E                   MOV.L       R3,@(56,R15)
    000007E6 7241                   ADD         #65,R2
    000007E8 1F2D                   MOV.L       R2,@(52,R15)
    000007EA 63F3                   MOV         R15,R3
    000007EC 7340                   ADD         #64,R3
    000007EE 62F3                   MOV         R15,R2
    000007F0 1F3F                   MOV.L       R3,@(60,R15)
    000007F2 7241                   ADD         #65,R2
    000007F4 1F2C                   MOV.L       R2,@(48,R15)
      XY_paramet   240       
      XY_paramet   241            while(1){




SH SERIES C/C++ Compiler (Ver. 6.0C)                                                                 01-Jun-2015 13:45:28  PAGE   23


SCT OFFSET   CODE       C LABEL     INSTRUCTION OPERAND    COMMENT

    000007F6              L961:                             
      XY_paramet   242                    if (refresh==REDRAW_ALL){
    000007F6 6083                   MOV         R8,R0
    000007F8 DB1B                   MOV.L       L1064+48,R11; _DispStr
    000007FA 8802                   CMP/EQ      #2,R0
    000007FC 8B77                   BF          L962
      XY_paramet   243                            Bdisp_AllClr_VRAM();
    000007FE D81B                   MOV.L       L1064+52,R8; _Bdisp_AllClr_VRAM
    00000800 480B                   JSR         @R8
    00000802 0009                   NOP
      XY_paramet   244                            for (i=0;i<4;++i)
    00000804 A00F                   BRA         L963
    00000806 68D3                   MOV         R13,R8
    00000808              L964:                             
      XY_paramet   245                                 PrintTables(i,0,table_label[left+i],1,1);
    00000808 9319                   MOV.W       L1064+6,R3 ; H'009C
    0000080A E500                   MOV         #0,R5
    0000080C E201                   MOV         #1,R2
    0000080E 6723                   MOV         R2,R7
    00000810 2F26                   MOV.L       R2,@-R15
    00000812 33FC                   ADD         R15,R3
    00000814 56F2                   MOV.L       @(8,R15),R6
    00000816 368C                   ADD         R8,R6
    00000818 4608                   SHLL2       R6
    0000081A 363C                   ADD         R3,R6
    0000081C 6662                   MOV.L       @R6,R6
    0000081E BBEF                   BSR         _PrintTables
    00000820 6483                   MOV         R8,R4
    00000822 7F04                   ADD         #4,R15
    00000824 7801                   ADD         #1,R8
    00000826              L963:                             
    00000826 E304                   MOV         #4,R3
    00000828 3833                   CMP/GE      R3,R8
    0000082A 8BED                   BF          L964
      XY_paramet   246                            t = route.size<= 1 ? 2 : 5; //Ìõ¼þÎªÕæÊä³öÎª2 ·ñÕßÎª5
    0000082C 51A9                   MOV.L       @(36,R10),R1
    0000082E E201                   MOV         #1,R2
    00000830 3127                   CMP/GT      R2,R1
    00000832 891D                   BT          L965
    00000834 A01D                   BRA         L966
    00000836 E102                   MOV         #2,R1
    00000838              L1064:                            
    00000838 FF44                   .DATA.W     H'FF44
    0000083A 0098                   .DATA.W     H'0098
    0000083C 0084                   .DATA.W     H'0084
    0000083E 009C                   .DATA.W     H'009C
    00000840 <00000000>             .DATA.L     _route
    00000844 <00000000>             .DATA.L     L623
    00000848 <00000000>             .DATA.L     __quick_odd_mvn
    0000084C <00000000>             .DATA.L     L634
    00000850 <00000000>             .DATA.L     L637
    00000854 <00000000>             .DATA.L     L658
    00000858 <00000000>             .DATA.L     __slow_mvn
    0000085C <00000000>             .DATA.L     _stAsc6x12
    00000860 <00000000>             .DATA.L     _stHz12x12
    00000864 <00000000>             .DATA.L     _SetMyFont
    00000868 <00000000>             .DATA.L     _DispStr




SH SERIES C/C++ Compiler (Ver. 6.0C)                                                                 01-Jun-2015 13:45:28  PAGE   24


SCT OFFSET   CODE       C LABEL     INSTRUCTION OPERAND    COMMENT

    0000086C <00000000>             .DATA.L     _Bdisp_AllClr_VRAM
    00000870              L965:                             
    00000870 E105                   MOV         #5,R1
    00000872              L966:                             
      XY_paramet   247                            if      (t>=2){
    00000872 3193                   CMP/GE      R9,R1
    00000874 8F0E                   BF/S        L967
    00000876 2F12                   MOV.L       R1,@R15
      XY_paramet   248                            SetMyFont(&stHz8x8,&stAsc6x12);
    00000878 D543                   MOV.L       L1065+2,R5 ; _stAsc6x12
    0000087A D444                   MOV.L       L1065+6,R4 ; _stHz8x8
    0000087C D244                   MOV.L       L1065+10,R2; _SetMyFont
    0000087E 420B                   JSR         @R2
    00000880 0009                   NOP
      XY_paramet   249                            DispStr(2,56,"\xCE\xC4\xBC\xFE");
    00000882 E538                   MOV         #56,R5
    00000884 D643                   MOV.L       L1065+14,R6; L663
    00000886 4B0B                   JSR         @R11
    00000888 E402                   MOV         #2,R4
      XY_paramet   250                        DispStr(23,56,"Ìí¼Ó");
    0000088A E538                   MOV         #56,R5
    0000088C D842                   MOV.L       L1065+18,R8; L664
    0000088E 6683                   MOV         R8,R6
    00000890 4B0B                   JSR         @R11
    00000892 E417                   MOV         #23,R4
    00000894              L967:                             
      XY_paramet   251                            }
      XY_paramet   252                            if      (t>2){
    00000894 63F2                   MOV.L       @R15,R3
    00000896 3397                   CMP/GT      R9,R3
    00000898 8B11                   BF          L968
      XY_paramet   253                            SetMyFont(&stHz8x8,&stAsc6x12);
    0000089A D53B                   MOV.L       L1065+2,R5 ; _stAsc6x12
    0000089C D43B                   MOV.L       L1065+6,R4 ; _stHz8x8
    0000089E D33C                   MOV.L       L1065+10,R3; _SetMyFont
    000008A0 430B                   JSR         @R3
    000008A2 0009                   NOP
      XY_paramet   254                            DispStr(45,56,"²åÈë ");
    000008A4 D63D                   MOV.L       L1065+22,R6; L666
    000008A6 E538                   MOV         #56,R5
    000008A8 4B0B                   JSR         @R11
    000008AA E42D                   MOV         #45,R4
      XY_paramet   255                        DispStr(65,56,"É¾ÐÐ ");
    000008AC D63C                   MOV.L       L1065+26,R6; L667
    000008AE E538                   MOV         #56,R5
    000008B0 4B0B                   JSR         @R11
    000008B2 E441                   MOV         #65,R4
      XY_paramet   256                            DispStr(86,56,"Çå¿Õ ");
    000008B4 D83B                   MOV.L       L1065+30,R8; L668
    000008B6 E538                   MOV         #56,R5
    000008B8 6683                   MOV         R8,R6
    000008BA 4B0B                   JSR         @R11
    000008BC E456                   MOV         #86,R4
    000008BE              L968:                             
      XY_paramet   257                            }
      XY_paramet   258                            for (i=0;i< t;++i)
    000008BE 62F2                   MOV.L       @R15,R2




SH SERIES C/C++ Compiler (Ver. 6.0C)                                                                 01-Jun-2015 13:45:28  PAGE   25


SCT OFFSET   CODE       C LABEL     INSTRUCTION OPERAND    COMMENT

    000008C0 4215                   CMP/PL      R2
    000008C2 8F0E                   BF/S        L969
    000008C4 68D3                   MOV         R13,R8
    000008C6              L970:                             
      XY_paramet   259                            PrintIcon(i,icons[i],0);
    000008C6 E600                   MOV         #0,R6
    000008C8 935D                   MOV.W       L1065,R3   ; H'0084
    000008CA 6583                   MOV         R8,R5
    000008CC D236                   MOV.L       L1065+34,R2; _PrintIcon
    000008CE 33FC                   ADD         R15,R3
    000008D0 4508                   SHLL2       R5
    000008D2 353C                   ADD         R3,R5
    000008D4 6552                   MOV.L       @R5,R5
    000008D6 420B                   JSR         @R2
    000008D8 6483                   MOV         R8,R4
    000008DA 7801                   ADD         #1,R8
    000008DC 63F2                   MOV.L       @R15,R3
    000008DE 3833                   CMP/GE      R3,R8
    000008E0 8BF1                   BF          L970
    000008E2              L969:                             
      XY_paramet   260                            PrintIcon(5,"?",0);
    000008E2 E600                   MOV         #0,R6
    000008E4 D330                   MOV.L       L1065+34,R3; _PrintIcon
    000008E6 D531                   MOV.L       L1065+38,R5; L669
    000008E8 430B                   JSR         @R3
    000008EA E405                   MOV         #5,R4
      XY_paramet   261                            refresh = REDRAW_PART;
    000008EC E801                   MOV         #1,R8
    000008EE              L962:                             
    000008EE E24C                   MOV         #76,R2
    000008F0 0E27                   MUL.L       R2,R14
    000008F2 63C3                   MOV         R12,R3
    000008F4 021A                   STS         MACL,R2
    000008F6 73FF                   ADD         #-1,R3
    000008F8 1F24                   MOV.L       R2,@(16,R15)
    000008FA 6083                   MOV         R8,R0
    000008FC 4308                   SHLL2       R3
    000008FE 4300                   SHLL        R3
    00000900 1F36                   MOV.L       R3,@(24,R15)
    00000902 8801                   CMP/EQ      #1,R0
    00000904 8901                   BT          L1066
    00000906 A0CA                   BRA         L971
    00000908 0009                   NOP
    0000090A              L1066:                            
    0000090A 60C3                   MOV         R12,R0
      XY_paramet   262                    }
      XY_paramet   263                    if (refresh==REDRAW_PART){
      XY_paramet   264                            double * sd;
      XY_paramet   265                            for (i=top;i<top+4 && i<route.size;++i){
    0000090C 58F2                   MOV.L       @(8,R15),R8
    0000090E 51F1                   MOV.L       @(4,R15),R1
    00000910 3018                   SUB         R1,R0
    00000912 2118                   TST         R1,R1
    00000914 1F05                   MOV.L       R0,@(20,R15)
    00000916 0029                   MOVT        R0
    00000918 53F2                   MOV.L       @(8,R15),R3
    0000091A 7304                   ADD         #4,R3




SH SERIES C/C++ Compiler (Ver. 6.0C)                                                                 01-Jun-2015 13:45:28  PAGE   26


SCT OFFSET   CODE       C LABEL     INSTRUCTION OPERAND    COMMENT

    0000091C 1F39                   MOV.L       R3,@(36,R15)
    0000091E 1F0A                   MOV.L       R0,@(40,R15)
    00000920 50F5                   MOV.L       @(20,R15),R0
    00000922 2008                   TST         R0,R0
    00000924 0029                   MOVT        R0
    00000926 A071                   BRA         L974
    00000928 1F08                   MOV.L       R0,@(32,R15)
    0000092A              L975:                             
      XY_paramet   266                                    sd =  & (route.set[i].qd_zh);
    0000092A E34C                   MOV         #76,R3
    0000092C 52A8                   MOV.L       @(32,R10),R2
    0000092E 0837                   MUL.L       R3,R8
    00000930 031A                   STS         MACL,R3
    00000932 332C                   ADD         R2,R3
    00000934 6133                   MOV         R3,R1
    00000936 710C                   ADD         #12,R1
    00000938 1F1B                   MOV.L       R1,@(44,R15)
      XY_paramet   267                                    for (j=(left==0 ? 1:0);j<4;++j){
    0000093A 52FA                   MOV.L       @(40,R15),R2
    0000093C 2228                   TST         R2,R2
    0000093E 8901                   BT          L976
    00000940 A001                   BRA         L977
    00000942 E301                   MOV         #1,R3
    00000944              L976:                             
    00000944 E300                   MOV         #0,R3
    00000946              L977:                             
    00000946 6083                   MOV         R8,R0
    00000948 2F32                   MOV.L       R3,@R15
    0000094A E104                   MOV         #4,R1
    0000094C 52F2                   MOV.L       @(8,R15),R2
    0000094E 3313                   CMP/GE      R1,R3
    00000950 3028                   SUB         R2,R0
    00000952 7001                   ADD         #1,R0
    00000954 81FE                   MOV.W       R0,@(28,R15)
    00000956 8939                   BT          L978
    00000958              L979:                             
      XY_paramet   268                                            //if (i==0 && j+left>2)
      XY_paramet   269                                                    //PrintTable(j,i+1-top,"",y==i && x-left==j,0);
      XY_paramet   270                                            //else
      XY_paramet   271                                                    PrintTableFormats(j,i+1-top,y==i && x-left==j,0,"%lf",sd[j
                         ++left-1]);
    00000958 53F1                   MOV.L       @(4,R15),R3
    0000095A 62F2                   MOV.L       @R15,R2
    0000095C 51FB                   MOV.L       @(44,R15),R1
    0000095E 323C                   ADD         R3,R2
    00000960 72FF                   ADD         #-1,R2
    00000962 4208                   SHLL2       R2
    00000964 4200                   SHLL        R2
    00000966 321C                   ADD         R1,R2
    00000968 5021                   MOV.L       @(4,R2),R0
    0000096A 3E80                   CMP/EQ      R8,R14
    0000096C 2F06                   MOV.L       R0,@-R15
    0000096E 6022                   MOV.L       @R2,R0
    00000970 D20F                   MOV.L       L1065+42,R2; L674
    00000972 2F06                   MOV.L       R0,@-R15
    00000974 2F26                   MOV.L       R2,@-R15
    00000976 8F1D                   BF/S        L980




SH SERIES C/C++ Compiler (Ver. 6.0C)                                                                 01-Jun-2015 13:45:28  PAGE   27


SCT OFFSET   CODE       C LABEL     INSTRUCTION OPERAND    COMMENT

    00000978 E700                   MOV         #0,R7
    0000097A 53F3                   MOV.L       @(12,R15),R3
    0000097C 50F8                   MOV.L       @(32,R15),R0
    0000097E 3030                   CMP/EQ      R3,R0
    00000980 8B18                   BF          L980
    00000982 A018                   BRA         L981
    00000984 E601                   MOV         #1,R6
    00000986              L1065:                            
    00000986 0084                   .DATA.W     H'0084
    00000988 <00000000>             .DATA.L     _stAsc6x12
    0000098C <00000000>             .DATA.L     _stHz8x8
    00000990 <00000000>             .DATA.L     _SetMyFont
    00000994 <00000000>             .DATA.L     L663
    00000998 <00000000>             .DATA.L     L664
    0000099C <00000000>             .DATA.L     L666
    000009A0 <00000000>             .DATA.L     L667
    000009A4 <00000000>             .DATA.L     L668
    000009A8 <00000000>             .DATA.L     _PrintIcon
    000009AC <00000000>             .DATA.L     L669
    000009B0 <00000000>             .DATA.L     L674
    000009B4              L980:                             
    000009B4 E600                   MOV         #0,R6
    000009B6              L981:                             
    000009B6 E028                   MOV         #40,R0
    000009B8 05FD                   MOV.W       @(R0,R15),R5
    000009BA BB8F                   BSR         _PrintTableFormats
    000009BC 54F3                   MOV.L       @(12,R15),R4
    000009BE 7F0C                   ADD         #12,R15
    000009C0 62F2                   MOV.L       @R15,R2
    000009C2 E304                   MOV         #4,R3
    000009C4 7201                   ADD         #1,R2
    000009C6 3233                   CMP/GE      R3,R2
    000009C8 8FC6                   BF/S        L979
    000009CA 2F22                   MOV.L       R2,@R15
    000009CC              L978:                             
      XY_paramet   272                                    }
      XY_paramet   273                                    if (left==0)
    000009CC 52F1                   MOV.L       @(4,R15),R2
    000009CE 2228                   TST         R2,R2
    000009D0 8B15                   BF          L982
      XY_paramet   274                                            PrintTableFormats(0,i+1-top,y==i && x-left==0,0,"%s",route.set[i].
                         +name);
    000009D2 E24C                   MOV         #76,R2
    000009D4 53A8                   MOV.L       @(32,R10),R3
    000009D6 3E80                   CMP/EQ      R8,R14
    000009D8 D123                   MOV.L       L1067+2,R1 ; L675
    000009DA 0827                   MUL.L       R2,R8
    000009DC 021A                   STS         MACL,R2
    000009DE 323C                   ADD         R3,R2
    000009E0 2F26                   MOV.L       R2,@-R15
    000009E2 2F16                   MOV.L       R1,@-R15
    000009E4 8F05                   BF/S        L983
    000009E6 E700                   MOV         #0,R7
    000009E8 53FA                   MOV.L       @(40,R15),R3
    000009EA 2338                   TST         R3,R3
    000009EC 8901                   BT          L983
    000009EE A001                   BRA         L984




SH SERIES C/C++ Compiler (Ver. 6.0C)                                                                 01-Jun-2015 13:45:28  PAGE   28


SCT OFFSET   CODE       C LABEL     INSTRUCTION OPERAND    COMMENT

    000009F0 E601                   MOV         #1,R6
    000009F2              L983:                             
    000009F2 E600                   MOV         #0,R6
    000009F4              L984:                             
    000009F4 E024                   MOV         #36,R0
    000009F6 05FD                   MOV.W       @(R0,R15),R5
    000009F8 BB70                   BSR         _PrintTableFormats
    000009FA E400                   MOV         #0,R4
    000009FC 7F08                   ADD         #8,R15
    000009FE              L982:                             
      XY_paramet   275                                        PrintTableIndexs(i-top+1,i);
    000009FE 6583                   MOV         R8,R5
    00000A00 53F2                   MOV.L       @(8,R15),R3
    00000A02 6483                   MOV         R8,R4
    00000A04 3438                   SUB         R3,R4
    00000A06 BBA9                   BSR         _PrintTableIndexs
    00000A08 7401                   ADD         #1,R4
    00000A0A 7801                   ADD         #1,R8
    00000A0C              L974:                             
    00000A0C 53F9                   MOV.L       @(36,R15),R3
    00000A0E 3833                   CMP/GE      R3,R8
    00000A10 8903                   BT          L985
    00000A12 D216                   MOV.L       L1067+6,R2 ; H'00000024+_route
    00000A14 6122                   MOV.L       @R2,R1
    00000A16 3813                   CMP/GE      R1,R8
    00000A18 8B87                   BF          L975
    00000A1A              L985:                             
      XY_paramet   276                            }
      XY_paramet   277                            SetMyFont(&stHz12x12,&stAsc6x12);
    00000A1A D515                   MOV.L       L1067+10,R5; _stAsc6x12
    00000A1C D415                   MOV.L       L1067+14,R4; _stHz12x12
    00000A1E D216                   MOV.L       L1067+18,R2; _SetMyFont
    00000A20 420B                   JSR         @R2
    00000A22 0009                   NOP
    00000A24 68C3                   MOV         R12,R8
    00000A26 4808                   SHLL2       R8
    00000A28 63F3                   MOV         R15,R3
    00000A2A 7360                   ADD         #96,R3
    00000A2C 4C15                   CMP/PL      R12
    00000A2E 8F29                   BF/S        L986
    00000A30 383C                   ADD         R3,R8
      XY_paramet   278                            if(x>0){
      XY_paramet   279                                    //if (!(y==0 && x>2)){
      XY_paramet   280                                            sd =  & (route.set[y].qd_zh);
      XY_paramet   281                                            DispStr(0,42,ch_text[x]);
    00000A32 E52A                   MOV         #42,R5
    00000A34 52F4                   MOV.L       @(16,R15),R2
    00000A36 51A8                   MOV.L       @(32,R10),R1
    00000A38 312C                   ADD         R2,R1
    00000A3A 6213                   MOV         R1,R2
    00000A3C 720C                   ADD         #12,R2
    00000A3E 2F22                   MOV.L       R2,@R15
    00000A40 6682                   MOV.L       @R8,R6
    00000A42 4B0B                   JSR         @R11
    00000A44 E400                   MOV         #0,R4
      XY_paramet   282                                            PrintFloat(sd[x-1],49,42,0,setup_data.point);
    00000A46 E600                   MOV         #0,R6




SH SERIES C/C++ Compiler (Ver. 6.0C)                                                                 01-Jun-2015 13:45:28  PAGE   29


SCT OFFSET   CODE       C LABEL     INSTRUCTION OPERAND    COMMENT

    00000A48 D80C                   MOV.L       L1067+22,R8; _PrintFloat
    00000A4A E52A                   MOV         #42,R5
    00000A4C 63F2                   MOV.L       @R15,R3
    00000A4E 52F6                   MOV.L       @(24,R15),R2
    00000A50 D00B                   MOV.L       L1067+26,R0; _setup_data
    00000A52 323C                   ADD         R3,R2
    00000A54 5121                   MOV.L       @(4,R2),R1
    00000A56 2F16                   MOV.L       R1,@-R15
    00000A58 6122                   MOV.L       @R2,R1
    00000A5A 2F16                   MOV.L       R1,@-R15
    00000A5C 6702                   MOV.L       @R0,R7
    00000A5E 480B                   JSR         @R8
    00000A60 E431                   MOV         #49,R4
    00000A62 A01B                   BRA         L987
    00000A64 7F08                   ADD         #8,R15
    00000A66              L1067:                            
    00000A66 0000                   .DATA.W     0
    00000A68 <00000000>             .DATA.L     L675
    00000A6C <00000024>             .DATA.L     H'00000024+_route
    00000A70 <00000000>             .DATA.L     _stAsc6x12
    00000A74 <00000000>             .DATA.L     _stHz12x12
    00000A78 <00000000>             .DATA.L     _SetMyFont
    00000A7C <00000000>             .DATA.L     _PrintFloat
    00000A80 <00000000>             .DATA.L     _setup_data
    00000A84              L986:                             
      XY_paramet   283                                    //}
      XY_paramet   284                            }else{
      XY_paramet   285                                    DispStr(0,42,ch_text[x]);
    00000A84 6682                   MOV.L       @R8,R6
    00000A86 E52A                   MOV         #42,R5
    00000A88 4B0B                   JSR         @R11
    00000A8A E400                   MOV         #0,R4
      XY_paramet   286                                    PrintXY(51,44,route.set[y].name,0);
    00000A8C D837                   MOV.L       L1068+24,R8; _PrintXY
    00000A8E E700                   MOV         #0,R7
    00000A90 53F4                   MOV.L       @(16,R15),R3
    00000A92 E52C                   MOV         #44,R5
    00000A94 56A8                   MOV.L       @(32,R10),R6
    00000A96 363C                   ADD         R3,R6
    00000A98 480B                   JSR         @R8
    00000A9A E433                   MOV         #51,R4
    00000A9C              L987:                             
      XY_paramet   287                            }
      XY_paramet   288                            refresh = 0;
    00000A9C 68D3                   MOV         R13,R8
    00000A9E              L971:                             
      XY_paramet   289                    }
      XY_paramet   290                    GetKey(&key);
    00000A9E D434                   MOV.L       L1068+28,R4; _key
    00000AA0 D334                   MOV.L       L1068+32,R3; _GetKey
    00000AA2 430B                   JSR         @R3
    00000AA4 0009                   NOP
      XY_paramet   291                    switch (key){
    00000AA6 D232                   MOV.L       L1068+28,R2; _key
    00000AA8 9154                   MOV.W       L1068,R1   ; H'7542
    00000AAA 6022                   MOV.L       @R2,R0
    00000AAC 3010                   CMP/EQ      R1,R0




SH SERIES C/C++ Compiler (Ver. 6.0C)                                                                 01-Jun-2015 13:45:28  PAGE   30


SCT OFFSET   CODE       C LABEL     INSTRUCTION OPERAND    COMMENT

    00000AAE 8B01                   BF          L1069
    00000AB0 A18A                   BRA         L1046
    00000AB2 0009                   NOP
    00000AB4              L1069:                            
    00000AB4 914F                   MOV.W       L1068+2,R1 ; H'7547
    00000AB6 3010                   CMP/EQ      R1,R0
    00000AB8 8920                   BT          L835
    00000ABA 914D                   MOV.W       L1068+4,R1 ; H'7544
    00000ABC 3010                   CMP/EQ      R1,R0
    00000ABE 891F                   BT          L836
    00000AC0 914B                   MOV.W       L1068+6,R1 ; H'7545
    00000AC2 3010                   CMP/EQ      R1,R0
    00000AC4 891E                   BT          L837
    00000AC6 9149                   MOV.W       L1068+8,R1 ; H'7532
    00000AC8 3010                   CMP/EQ      R1,R0
    00000ACA 891D                   BT          L838
    00000ACC 9147                   MOV.W       L1068+10,R1; H'7539
    00000ACE 3010                   CMP/EQ      R1,R0
    00000AD0 896F                   BT          L840
    00000AD2 9145                   MOV.W       L1068+12,R1; H'753A
    00000AD4 3010                   CMP/EQ      R1,R0
    00000AD6 8970                   BT          L841
    00000AD8 9143                   MOV.W       L1068+14,R1; H'753B
    00000ADA 3010                   CMP/EQ      R1,R0
    00000ADC 8973                   BT          L842
    00000ADE 9141                   MOV.W       L1068+16,R1; H'753C
    00000AE0 3010                   CMP/EQ      R1,R0
    00000AE2 8976                   BT          L843
    00000AE4 913F                   MOV.W       L1068+18,R1; H'753D
    00000AE6 3010                   CMP/EQ      R1,R0
    00000AE8 8B01                   BF          L1070
    00000AEA A093                   BRA         L846
    00000AEC 0009                   NOP
    00000AEE              L1070:                            
    00000AEE 913B                   MOV.W       L1068+20,R1; H'753E
    00000AF0 3010                   CMP/EQ      R1,R0
    00000AF2 8B01                   BF          L1071
    00000AF4 A0D2                   BRA         L848
    00000AF6 0009                   NOP
    00000AF8              L1071:                            
    00000AF8 A0E6                   BRA         L851
    00000AFA 0009                   NOP
    00000AFC              L835:                            ; case label 
    00000AFC A169                   BRA         L782
      XY_paramet   292                    case KEY_CTRL_UP:
      XY_paramet   293                            y--;refresh = REDRAW_ALL;break;
      XY_paramet   294                    case KEY_CTRL_DOWN:
      XY_paramet   295                            y++;refresh = REDRAW_ALL;break;
    00000AFE 7E01                   ADD         #1,R14
    00000B00              L836:                            ; case label 
    00000B00 A167                   BRA         L782
      XY_paramet   296                    case KEY_CTRL_LEFT:
      XY_paramet   297                            x--;refresh = REDRAW_ALL;break;
    00000B02 7CFF                   ADD         #-1,R12
    00000B04              L837:                            ; case label 
    00000B04 A165                   BRA         L782
      XY_paramet   298                    case KEY_CTRL_RIGHT:




SH SERIES C/C++ Compiler (Ver. 6.0C)                                                                 01-Jun-2015 13:45:28  PAGE   31


SCT OFFSET   CODE       C LABEL     INSTRUCTION OPERAND    COMMENT

      XY_paramet   299                            x++;refresh = REDRAW_ALL;break;
    00000B06 7C01                   ADD         #1,R12
    00000B08              L838:                            ; case label 
      XY_paramet   300                    case KEY_CTRL_EXIT:
      XY_paramet   301                        PopUpWin(5);
    00000B08 D31B                   MOV.L       L1068+36,R3; _PopUpWin
    00000B0A 430B                   JSR         @R3
    00000B0C E405                   MOV         #5,R4
      XY_paramet   302                            DispStr(48,12,"±£´æ?"); 
    00000B0E E50C                   MOV         #12,R5
    00000B10 D61A                   MOV.L       L1068+40,R6; L679
    00000B12 4B0B                   JSR         @R11
    00000B14 E430                   MOV         #48,R4
      XY_paramet   303                            locate(7,5);Print("Yes : [F1]");
    00000B16 E505                   MOV         #5,R5
    00000B18 D219                   MOV.L       L1068+44,R2; _locate
    00000B1A 420B                   JSR         @R2
    00000B1C E407                   MOV         #7,R4
    00000B1E D419                   MOV.L       L1068+48,R4; L568
    00000B20 D319                   MOV.L       L1068+52,R3; _Print
    00000B22 430B                   JSR         @R3
    00000B24 0009                   NOP
      XY_paramet   304                            locate(7,6);Print("No  : [F6]");
    00000B26 E506                   MOV         #6,R5
    00000B28 D215                   MOV.L       L1068+44,R2; _locate
    00000B2A 420B                   JSR         @R2
    00000B2C E407                   MOV         #7,R4
    00000B2E DE17                   MOV.L       L1068+56,R14; L569
    00000B30 D315                   MOV.L       L1068+52,R3; _Print
    00000B32 430B                   JSR         @R3
    00000B34 64E3                   MOV         R14,R4
      XY_paramet   305                            do{
      XY_paramet   306                                    GetKey(&key);
    00000B36 D40E                   MOV.L       L1068+28,R4; _key
    00000B38 D20E                   MOV.L       L1068+32,R2; _GetKey
    00000B3A 420B                   JSR         @R2
    00000B3C 0009                   NOP
      XY_paramet   307                                    if (key==KEY_CTRL_F6 || key==KEY_CTRL_EXIT){enter =0 ;break;}
    00000B3E 9413                   MOV.W       L1068+20,R4; H'753E
    00000B40 D20B                   MOV.L       L1068+28,R2; _key
    00000B42 6322                   MOV.L       @R2,R3
    00000B44 3340                   CMP/EQ      R4,R3
    00000B46 8903                   BT          L991
    00000B48 9008                   MOV.W       L1068+8,R0 ; H'7532
    00000B4A 6122                   MOV.L       @R2,R1
    00000B4C 3100                   CMP/EQ      R0,R1
    00000B4E 8B1F                   BF          L990
    00000B50              L991:                             
    00000B50 A01F                   BRA         L992
    00000B52 64D3                   MOV         R13,R4
    00000B54              L1068:                            
    00000B54 7542                   .DATA.W     H'7542
    00000B56 7547                   .DATA.W     H'7547
    00000B58 7544                   .DATA.W     H'7544
    00000B5A 7545                   .DATA.W     H'7545
    00000B5C 7532                   .DATA.W     H'7532
    00000B5E 7539                   .DATA.W     H'7539




SH SERIES C/C++ Compiler (Ver. 6.0C)                                                                 01-Jun-2015 13:45:28  PAGE   32


SCT OFFSET   CODE       C LABEL     INSTRUCTION OPERAND    COMMENT

    00000B60 753A                   .DATA.W     H'753A
    00000B62 753B                   .DATA.W     H'753B
    00000B64 753C                   .DATA.W     H'753C
    00000B66 753D                   .DATA.W     H'753D
    00000B68 753E                   .DATA.W     H'753E
    00000B6A 0000                   .DATA.W     0
    00000B6C <00000000>             .DATA.L     _PrintXY
    00000B70 <00000000>             .DATA.L     _key
    00000B74 <00000000>             .DATA.L     _GetKey
    00000B78 <00000000>             .DATA.L     _PopUpWin
    00000B7C <00000000>             .DATA.L     L679
    00000B80 <00000000>             .DATA.L     _locate
    00000B84 <00000000>             .DATA.L     L568
    00000B88 <00000000>             .DATA.L     _Print
    00000B8C <00000000>             .DATA.L     L569
    00000B90              L990:                             
      XY_paramet   308                                    else if (KEY_CTRL_F1) {enter = 1;break;}
    00000B90 E401                   MOV         #1,R4
    00000B92              L992:                             
      XY_paramet   309                            }while(1);
      XY_paramet   310                            if(enter)
    00000B92 2448                   TST         R4,R4
    00000B94 890B                   BT          L995
      XY_paramet   311                            {
      XY_paramet   312                                    if(setup_data.route_name[0]==0)
    00000B96 D232                   MOV.L       L1072+2,R2 ; H'0000001E+_setup_data
    00000B98 6320                   MOV.B       @R2,R3
    00000B9A 2338                   TST         R3,R3
    00000B9C 8B03                   BF          L996
      XY_paramet   313                                    {
      XY_paramet   314                                            WheterSavaAS();
    00000B9E BB3F                   BSR         _WheterSavaAS
    00000BA0 0009                   NOP
    00000BA2 A004                   BRA         L995
    00000BA4 0009                   NOP
    00000BA6              L996:                             
      XY_paramet   315                                    }
      XY_paramet   316                                    else
      XY_paramet   317                                    {
      XY_paramet   318                                            SaveSRDFile(setup_data.route_name);
    00000BA6 DE2F                   MOV.L       L1072+6,R14; _SaveSRDFile
    00000BA8 D42D                   MOV.L       L1072+2,R4 ; H'0000001E+_setup_data
    00000BAA 4E0B                   JSR         @R14
    00000BAC 0009                   NOP
    00000BAE              L995:                             
      XY_paramet   319                                    }
      XY_paramet   320                            }
      XY_paramet   321                            return 0 ;
    00000BAE A13B                   BRA         L998
    00000BB0 E000                   MOV         #0,R0
    00000BB2              L840:                            ; case label 
      XY_paramet   322                    case KEY_CTRL_F1:                                       /* Set */
      XY_paramet   323                            refresh = REDRAW_ALL;
      XY_paramet   324                            SelSetupF5();
    00000BB2 BBD3                   BSR         _SelSetupF5
    00000BB4 6893                   MOV         R9,R8
      XY_paramet   325                            break;




SH SERIES C/C++ Compiler (Ver. 6.0C)                                                                 01-Jun-2015 13:45:28  PAGE   33


SCT OFFSET   CODE       C LABEL     INSTRUCTION OPERAND    COMMENT

    00000BB6 A10D                   BRA         L988
    00000BB8 0009                   NOP
    00000BBA              L841:                            ; case label 
      XY_paramet   326                    case KEY_CTRL_F2:                                       /* Add */
      XY_paramet   327                            route_push_back (&route);
    00000BBA D42B                   MOV.L       L1072+10,R4; _route
    00000BBC D32B                   MOV.L       L1072+14,R3; _route_push_back
    00000BBE 430B                   JSR         @R3
    00000BC0 0009                   NOP
    00000BC2 A101                   BRA         L1046
      XY_paramet   328                            y = route.size - 1;
    00000BC4 5EA9                   MOV.L       @(36,R10),R14
    00000BC6              L842:                            ; case label 
      XY_paramet   329                            refresh = REDRAW_ALL;
      XY_paramet   330                            break;
      XY_paramet   331                    case KEY_CTRL_F3:                                       /* ins */
      XY_paramet   332                            //if (y==0) break;
      XY_paramet   333                            route_insert (&route,y);
    00000BC6 DB2A                   MOV.L       L1072+18,R11; _route_insert
    00000BC8 D427                   MOV.L       L1072+10,R4; _route
    00000BCA 4B0B                   JSR         @R11
    00000BCC 65E3                   MOV         R14,R5
    00000BCE A0FD                   BRA         L1047
    00000BD0 0009                   NOP
    00000BD2              L843:                            ; case label 
      XY_paramet   334                            y++;
      XY_paramet   335                            refresh = REDRAW_ALL;
      XY_paramet   336                            break;
      XY_paramet   337                    case KEY_CTRL_F4:                                       /* Del a point */
      XY_paramet   338                            //if (y==0) break;
      XY_paramet   339                            refresh = REDRAW_ALL;
    00000BD2 6893                   MOV         R9,R8
      XY_paramet   340                            PopUpWin(4);DispStr(25,10,"É¾ ³ý Ò» ÐÐ?");
    00000BD4 D327                   MOV.L       L1072+22,R3; _PopUpWin
    00000BD6 430B                   JSR         @R3
    00000BD8 E404                   MOV         #4,R4
    00000BDA E50A                   MOV         #10,R5
    00000BDC D626                   MOV.L       L1072+26,R6; L686
    00000BDE 4B0B                   JSR         @R11
    00000BE0 E419                   MOV         #25,R4
      XY_paramet   341                            locate(3,5);Print("[F1]Yes   [F6]No");
    00000BE2 E505                   MOV         #5,R5
    00000BE4 D225                   MOV.L       L1072+30,R2; _locate
    00000BE6 420B                   JSR         @R2
    00000BE8 E403                   MOV         #3,R4
    00000BEA D425                   MOV.L       L1072+34,R4; L687
    00000BEC D325                   MOV.L       L1072+38,R3; _Print
    00000BEE 430B                   JSR         @R3
    00000BF0 0009                   NOP
      XY_paramet   342                            GetKey(&key);
    00000BF2 D425                   MOV.L       L1072+42,R4; _key
    00000BF4 D225                   MOV.L       L1072+46,R2; _GetKey
    00000BF6 420B                   JSR         @R2
    00000BF8 0009                   NOP
      XY_paramet   343                            if (key==KEY_CTRL_F1){
    00000BFA 9330                   MOV.W       L1072,R3   ; H'7539
    00000BFC D122                   MOV.L       L1072+42,R1; _key




SH SERIES C/C++ Compiler (Ver. 6.0C)                                                                 01-Jun-2015 13:45:28  PAGE   34


SCT OFFSET   CODE       C LABEL     INSTRUCTION OPERAND    COMMENT

    00000BFE 6212                   MOV.L       @R1,R2
    00000C00 3230                   CMP/EQ      R3,R2
    00000C02 8901                   BT          L1073
    00000C04 A0E6                   BRA         L988
    00000C06 0009                   NOP
    00000C08              L1073:                            
      XY_paramet   344                                    route_del(&route,y);y--;
    00000C08 DB21                   MOV.L       L1072+50,R11; _route_del
    00000C0A D417                   MOV.L       L1072+10,R4; _route
    00000C0C 4B0B                   JSR         @R11
    00000C0E 65E3                   MOV         R14,R5
      XY_paramet   345                            }
      XY_paramet   346                            break;
    00000C10 A0E0                   BRA         L988
    00000C12 7EFF                   ADD         #-1,R14
    00000C14              L846:                            ; case label 
      XY_paramet   347                            
      XY_paramet   348                     case KEY_CTRL_F5:                                      /* Del All */
      XY_paramet   349                            refresh = REDRAW_ALL;
      XY_paramet   350                            PopUpWin(4);DispStr(25,10,"Çå ¿Õ Ëù ÓÐ ?");
    00000C14 D117                   MOV.L       L1072+22,R1; _PopUpWin
    00000C16 6893                   MOV         R9,R8
    00000C18 410B                   JSR         @R1
    00000C1A E404                   MOV         #4,R4
    00000C1C D61D                   MOV.L       L1072+54,R6; L689
    00000C1E E50A                   MOV         #10,R5
    00000C20 4B0B                   JSR         @R11
    00000C22 E419                   MOV         #25,R4
      XY_paramet   351                            locate(3,5);Print("[F1]Yes   [F6]No");
    00000C24 D315                   MOV.L       L1072+30,R3; _locate
    00000C26 E505                   MOV         #5,R5
    00000C28 430B                   JSR         @R3
    00000C2A E403                   MOV         #3,R4
    00000C2C D414                   MOV.L       L1072+34,R4; L687
    00000C2E D215                   MOV.L       L1072+38,R2; _Print
    00000C30 420B                   JSR         @R2
    00000C32 0009                   NOP
      XY_paramet   352                            GetKey(&key);
    00000C34 D414                   MOV.L       L1072+42,R4; _key
    00000C36 D315                   MOV.L       L1072+46,R3; _GetKey
    00000C38 430B                   JSR         @R3
    00000C3A 0009                   NOP
      XY_paramet   353                            if (key==KEY_CTRL_F1){
    00000C3C 920F                   MOV.W       L1072,R2   ; H'7539
    00000C3E D112                   MOV.L       L1072+42,R1; _key
    00000C40 6312                   MOV.L       @R1,R3
    00000C42 3320                   CMP/EQ      R2,R3
    00000C44 8901                   BT          L1074
    00000C46 A0C5                   BRA         L988
    00000C48 0009                   NOP
    00000C4A              L1074:                            
      XY_paramet   354                                    route_initial(&route);
    00000C4A DB13                   MOV.L       L1072+58,R11; _route_initial
    00000C4C D406                   MOV.L       L1072+10,R4; _route
    00000C4E 4B0B                   JSR         @R11
    00000C50 0009                   NOP
      XY_paramet   355                        route_push_back(&route);




SH SERIES C/C++ Compiler (Ver. 6.0C)                                                                 01-Jun-2015 13:45:28  PAGE   35


SCT OFFSET   CODE       C LABEL     INSTRUCTION OPERAND    COMMENT

    00000C52 D405                   MOV.L       L1072+10,R4; _route
    00000C54 D305                   MOV.L       L1072+14,R3; _route_push_back
    00000C56 430B                   JSR         @R3
    00000C58 0009                   NOP
      XY_paramet   356                            }
      XY_paramet   357                            break;
    00000C5A A0BB                   BRA         L988
    00000C5C 0009                   NOP
    00000C5E              L1072:                            
    00000C5E 7539                   .DATA.W     H'7539
    00000C60 <0000001E>             .DATA.L     H'0000001E+_setup_data
    00000C64 <00000000>             .DATA.L     _SaveSRDFile
    00000C68 <00000000>             .DATA.L     _route
    00000C6C <00000000>             .DATA.L     _route_push_back
    00000C70 <00000000>             .DATA.L     _route_insert
    00000C74 <00000000>             .DATA.L     _PopUpWin
    00000C78 <00000000>             .DATA.L     L686
    00000C7C <00000000>             .DATA.L     _locate
    00000C80 <00000000>             .DATA.L     L687
    00000C84 <00000000>             .DATA.L     _Print
    00000C88 <00000000>             .DATA.L     _key
    00000C8C <00000000>             .DATA.L     _GetKey
    00000C90 <00000000>             .DATA.L     _route_del
    00000C94 <00000000>             .DATA.L     L689
    00000C98 <00000000>             .DATA.L     _route_initial
    00000C9C              L848:                            ; case label 
      XY_paramet   358    
      XY_paramet   359             case KEY_CTRL_F6:
      XY_paramet   360                        refresh = REDRAW_ALL;
      XY_paramet   361                            PopUpWin(4);
    00000C9C D329                   MOV.L       L1075+8,R3 ; _PopUpWin
    00000C9E 6893                   MOV         R9,R8
    00000CA0 430B                   JSR         @R3
    00000CA2 E404                   MOV         #4,R4
      XY_paramet   362                            //PrintfXY (15,30,0,"%.3f",route.set[0].xy_qr);  
      XY_paramet   363                            //PrintfXY (70,30,0,"%.3f",route.set[0].xy_zr);  
      XY_paramet   364                            DispStr(15,10,"ÏßÂ·Ãû³Æ");
    00000CA4 D628                   MOV.L       L1075+12,R6; L691
    00000CA6 E50A                   MOV         #10,R5
    00000CA8 4B0B                   JSR         @R11
    00000CAA E40F                   MOV         #15,R4
      XY_paramet   365                            if(setup_data.route_name[0]==0)
    00000CAC D227                   MOV.L       L1075+16,R2; H'0000001E+_setup_data
    00000CAE 6320                   MOV.B       @R2,R3
    00000CB0 2338                   TST         R3,R3
    00000CB2 8B03                   BF          L1001
      XY_paramet   366                            {
      XY_paramet   367                             DispStr(25,27,"Çë±£´æÏßÂ·ÎÄ¼þ ");
    00000CB4 D626                   MOV.L       L1075+20,R6; L693
    00000CB6 E51B                   MOV         #27,R5
    00000CB8 4B0B                   JSR         @R11
    00000CBA E419                   MOV         #25,R4
    00000CBC              L1001:                            
      XY_paramet   368                            }
      XY_paramet   369                             //else
      XY_paramet   370                            //{
      XY_paramet   371                 //DispStr(25,27,setup_data.route_name);




SH SERIES C/C++ Compiler (Ver. 6.0C)                                                                 01-Jun-2015 13:45:28  PAGE   36


SCT OFFSET   CODE       C LABEL     INSTRUCTION OPERAND    COMMENT

      XY_paramet   372                            //}
      XY_paramet   373                            GetKey(&key);
    00000CBC D425                   MOV.L       L1075+24,R4; _key
    00000CBE D326                   MOV.L       L1075+28,R3; _GetKey
    00000CC0 430B                   JSR         @R3
    00000CC2 0009                   NOP
      XY_paramet   374                    break;  
    00000CC4 A086                   BRA         L988
    00000CC6 0009                   NOP
    00000CC8              L851:                            ; default label 
      XY_paramet   375                    default:                                                        /*other things*/
      XY_paramet   376                            if (x>0 && (c=GetPressNumChar(key))!=0){
    00000CC8 9B38                   MOV.W       L1075,R11  ; H'7532
    00000CCA 4C15                   CMP/PL      R12
    00000CCC 8B4C                   BF          L1002
    00000CCE D123                   MOV.L       L1075+32,R1; _GetPressNumChar
    00000CD0 410B                   JSR         @R1
    00000CD2 6422                   MOV.L       @R2,R4
    00000CD4 80FC                   MOV.B       R0,@(12,R15)
    00000CD6 600E                   EXTS.B      R0,R0
    00000CD8 2008                   TST         R0,R0
    00000CDA 8945                   BT          L1002
      XY_paramet   377                                    char buffer[14];
      XY_paramet   378                                    int r;
      XY_paramet   379                                    //if (y==0 && x > 2)break;
      XY_paramet   380                                    buffer[0] = c;
    00000CDC 52FE                   MOV.L       @(56,R15),R2
      XY_paramet   381                                    buffer[1] = '\0';
      XY_paramet   382                                    r = InputString(49,42,buffer,0,12);
    00000CDE E700                   MOV         #0,R7
    00000CE0 84FC                   MOV.B       @(12,R15),R0
    00000CE2 E52A                   MOV         #42,R5
    00000CE4 2200                   MOV.B       R0,@R2
    00000CE6 53FD                   MOV.L       @(52,R15),R3
    00000CE8 D21D                   MOV.L       L1075+36,R2; _InputString
    00000CEA 23D0                   MOV.B       R13,@R3
    00000CEC E30C                   MOV         #12,R3
    00000CEE 2F36                   MOV.L       R3,@-R15
    00000CF0 66F3                   MOV         R15,R6
    00000CF2 7644                   ADD         #68,R6
    00000CF4 420B                   JSR         @R2
    00000CF6 E431                   MOV         #49,R4
    00000CF8 6803                   MOV         R0,R8
      XY_paramet   383                                    if (r!=KEY_CTRL_EXIT){
    00000CFA 38B0                   CMP/EQ      R11,R8
    00000CFC 8D69                   BT/S        L782
    00000CFE 7F04                   ADD         #4,R15
      XY_paramet   384                                            double * sd;
      XY_paramet   385                                            sd =  (double*)&(route.set[y].qd_zh);
    00000D00 53F4                   MOV.L       @(16,R15),R3
      XY_paramet   386                                            sd[x-1] = atof(buffer);
    00000D02 64F3                   MOV         R15,R4
    00000D04 D117                   MOV.L       L1075+40,R1; _atof
    00000D06 7440                   ADD         #64,R4
    00000D08 5BA8                   MOV.L       @(32,R10),R11
    00000D0A 3B3C                   ADD         R3,R11
    00000D0C 53F6                   MOV.L       @(24,R15),R3




SH SERIES C/C++ Compiler (Ver. 6.0C)                                                                 01-Jun-2015 13:45:28  PAGE   37


SCT OFFSET   CODE       C LABEL     INSTRUCTION OPERAND    COMMENT

    00000D0E 7B0C                   ADD         #12,R11
    00000D10 3B3C                   ADD         R3,R11
    00000D12 410B                   JSR         @R1
    00000D14 2FB6                   MOV.L       R11,@-R15
      XY_paramet   387                                            switch(r){
    00000D16 6083                   MOV         R8,R0
    00000D18 9111                   MOV.W       L1075+2,R1 ; H'7542
    00000D1A 3010                   CMP/EQ      R1,R0
    00000D1C 8D08                   BT/S        L852
    00000D1E 7F04                   ADD         #4,R15
    00000D20 910E                   MOV.W       L1075+4,R1 ; H'7547
    00000D22 3010                   CMP/EQ      R1,R0
    00000D24 8906                   BT          L853
    00000D26 910C                   MOV.W       L1075+6,R1 ; H'7534
    00000D28 3010                   CMP/EQ      R1,R0
    00000D2A 8905                   BT          L854
    00000D2C A051                   BRA         L782
    00000D2E 0009                   NOP
    00000D30              L852:                            ; case label 
      XY_paramet   388                                            case KEY_CTRL_UP:       y--;break;
    00000D30 A04A                   BRA         L1046
    00000D32 0009                   NOP
    00000D34              L853:                            ; case label 
      XY_paramet   389                                            case KEY_CTRL_DOWN:     y++;break;
    00000D34 A04A                   BRA         L1047
    00000D36 0009                   NOP
    00000D38              L854:                            ; case label 
    00000D38 A04B                   BRA         L782
      XY_paramet   390                                            case KEY_CTRL_EXE:      x++;break;
    00000D3A 7C01                   ADD         #1,R12
    00000D3C              L1075:                            
    00000D3C 7532                   .DATA.W     H'7532
    00000D3E 7542                   .DATA.W     H'7542
    00000D40 7547                   .DATA.W     H'7547
    00000D42 7534                   .DATA.W     H'7534
    00000D44 <00000000>             .DATA.L     _PopUpWin
    00000D48 <00000000>             .DATA.L     L691
    00000D4C <0000001E>             .DATA.L     H'0000001E+_setup_data
    00000D50 <00000000>             .DATA.L     L693
    00000D54 <00000000>             .DATA.L     _key
    00000D58 <00000000>             .DATA.L     _GetKey
    00000D5C <00000000>             .DATA.L     _GetPressNumChar
    00000D60 <00000000>             .DATA.L     _InputString
    00000D64 <00000000>             .DATA.L     _atof
    00000D68              L1002:                            
      XY_paramet   391                                            }
      XY_paramet   392                                    }
      XY_paramet   393                                    refresh = REDRAW_ALL;
      XY_paramet   394                            }
      XY_paramet   395                            else if (x==0 && (c=GetPressChar(key))!=0){
    00000D68 2CC8                   TST         R12,R12
    00000D6A 8B33                   BF          L988
    00000D6C D336                   MOV.L       L1076+8,R3 ; _key
    00000D6E D237                   MOV.L       L1076+12,R2; _GetPressChar
    00000D70 420B                   JSR         @R2
    00000D72 6432                   MOV.L       @R3,R4
    00000D74 80FC                   MOV.B       R0,@(12,R15)




SH SERIES C/C++ Compiler (Ver. 6.0C)                                                                 01-Jun-2015 13:45:28  PAGE   38


SCT OFFSET   CODE       C LABEL     INSTRUCTION OPERAND    COMMENT

    00000D76 600E                   EXTS.B      R0,R0
    00000D78 2008                   TST         R0,R0
    00000D7A 892B                   BT          L988
      XY_paramet   396                                    char buffer[14];
      XY_paramet   397                                    int r;
      XY_paramet   398                                    buffer[0] = c;
    00000D7C 52FF                   MOV.L       @(60,R15),R2
      XY_paramet   399                                    buffer[1] = '\0';
      XY_paramet   400                                    r = InputString(49,42,buffer,1,12);
    00000D7E E701                   MOV         #1,R7
    00000D80 84FC                   MOV.B       @(12,R15),R0
    00000D82 E52A                   MOV         #42,R5
    00000D84 2200                   MOV.B       R0,@R2
    00000D86 53FC                   MOV.L       @(48,R15),R3
    00000D88 D231                   MOV.L       L1076+16,R2; _InputString
    00000D8A 23D0                   MOV.B       R13,@R3
    00000D8C E30C                   MOV         #12,R3
    00000D8E 2F36                   MOV.L       R3,@-R15
    00000D90 66F3                   MOV         R15,R6
    00000D92 7644                   ADD         #68,R6
    00000D94 420B                   JSR         @R2
    00000D96 E431                   MOV         #49,R4
    00000D98 6803                   MOV         R0,R8
      XY_paramet   401                                    if (r!=KEY_CTRL_EXIT){
    00000D9A 38B0                   CMP/EQ      R11,R8
    00000D9C 8D19                   BT/S        L782
    00000D9E 7F04                   ADD         #4,R15
      XY_paramet   402                                            strncpy(route.set[y].name,buffer,12);
    00000DA0 DB2C                   MOV.L       L1076+20,R11; _strncpy
    00000DA2 E60C                   MOV         #12,R6
    00000DA4 53F4                   MOV.L       @(16,R15),R3
    00000DA6 65F3                   MOV         R15,R5
    00000DA8 54A8                   MOV.L       @(32,R10),R4
    00000DAA 7540                   ADD         #64,R5
    00000DAC 4B0B                   JSR         @R11
    00000DAE 343C                   ADD         R3,R4
      XY_paramet   403                                            switch(r){
    00000DB0 9146                   MOV.W       L1076,R1   ; H'7542
    00000DB2 6083                   MOV         R8,R0
    00000DB4 3010                   CMP/EQ      R1,R0
    00000DB6 8907                   BT          L855
    00000DB8 9143                   MOV.W       L1076+2,R1 ; H'7547
    00000DBA 3010                   CMP/EQ      R1,R0
    00000DBC 8906                   BT          L856
    00000DBE 9141                   MOV.W       L1076+4,R1 ; H'7534
    00000DC0 3010                   CMP/EQ      R1,R0
    00000DC2 8905                   BT          L857
    00000DC4 A005                   BRA         L782
    00000DC6 0009                   NOP
    00000DC8              L855:                            ; case label 
      XY_paramet   404                                            case KEY_CTRL_UP:       y--;break;
    00000DC8              L1046:                            
    00000DC8 A003                   BRA         L782
    00000DCA 7EFF                   ADD         #-1,R14
    00000DCC              L856:                            ; case label 
      XY_paramet   405                                            case KEY_CTRL_DOWN:     y++;break;
    00000DCC              L1047:                            




SH SERIES C/C++ Compiler (Ver. 6.0C)                                                                 01-Jun-2015 13:45:28  PAGE   39


SCT OFFSET   CODE       C LABEL     INSTRUCTION OPERAND    COMMENT

    00000DCC A001                   BRA         L782
    00000DCE 7E01                   ADD         #1,R14
    00000DD0              L857:                            ; case label 
      XY_paramet   406                                            case KEY_CTRL_EXE:      x++;break;
    00000DD0 7C01                   ADD         #1,R12
    00000DD2              L782:
      XY_paramet   407                                            }
      XY_paramet   408                                    }
      XY_paramet   409                                    refresh = REDRAW_ALL;
    00000DD2 6893                   MOV         R9,R8
      XY_paramet   410                            }
      XY_paramet   411                            break;
    00000DD4              L988:                             
      XY_paramet   412                    }
      XY_paramet   413                    if (x<0) x = 8,y--;
    00000DD4 4C11                   CMP/PZ      R12
    00000DD6 8D02                   BT/S        L1009
    00000DD8 E408                   MOV         #8,R4
    00000DDA 6C43                   MOV         R4,R12
    00000DDC 7EFF                   ADD         #-1,R14
    00000DDE              L1009:                            
      XY_paramet   414                    if (x>8) x = 0,y++;
    00000DDE 3C47                   CMP/GT      R4,R12
    00000DE0 8B01                   BF          L1010
    00000DE2 6CD3                   MOV         R13,R12
    00000DE4 7E01                   ADD         #1,R14
    00000DE6              L1010:                            
      XY_paramet   415                    if (y<0) y = 0;
    00000DE6 4E11                   CMP/PZ      R14
    00000DE8 8D01                   BT/S        L1011
      XY_paramet   416                    if (y>=route.size) y = route.size - 1;
    00000DEA 52A9                   MOV.L       @(36,R10),R2
    00000DEC 6ED3                   MOV         R13,R14
    00000DEE              L1011:                            
    00000DEE 3E23                   CMP/GE      R2,R14
    00000DF0 8B01                   BF          L1012
    00000DF2 5EA9                   MOV.L       @(36,R10),R14
    00000DF4 7EFF                   ADD         #-1,R14
    00000DF6              L1012:                            
      XY_paramet   417                    if (y>top + 3) top = y - 3;
    00000DF6 52F2                   MOV.L       @(8,R15),R2
    00000DF8 7203                   ADD         #3,R2
    00000DFA 3E27                   CMP/GT      R2,R14
    00000DFC 8B02                   BF          L1013
    00000DFE 62E3                   MOV         R14,R2
    00000E00 72FD                   ADD         #-3,R2
    00000E02 1F22                   MOV.L       R2,@(8,R15)
    00000E04              L1013:                            
      XY_paramet   418                    if (y<top) top = y;
    00000E04 53F2                   MOV.L       @(8,R15),R3
    00000E06 3E33                   CMP/GE      R3,R14
    00000E08 8900                   BT          L1014
    00000E0A 1FE2                   MOV.L       R14,@(8,R15)
    00000E0C              L1014:                            
      XY_paramet   419                    if (x>left +3) left = x - 3;
    00000E0C 53F1                   MOV.L       @(4,R15),R3
    00000E0E 7303                   ADD         #3,R3




SH SERIES C/C++ Compiler (Ver. 6.0C)                                                                 01-Jun-2015 13:45:28  PAGE   40


SCT OFFSET   CODE       C LABEL     INSTRUCTION OPERAND    COMMENT

    00000E10 3C37                   CMP/GT      R3,R12
    00000E12 8B02                   BF          L1015
    00000E14 62C3                   MOV         R12,R2
    00000E16 72FD                   ADD         #-3,R2
    00000E18 1F21                   MOV.L       R2,@(4,R15)
    00000E1A              L1015:                            
      XY_paramet   420                    if (x<left) left = x;
    00000E1A 53F1                   MOV.L       @(4,R15),R3
    00000E1C 3C33                   CMP/GE      R3,R12
    00000E1E 8B01                   BF          L1077
    00000E20 ACE9                   BRA         L961
    00000E22 0009                   NOP
    00000E24              L1077:                            
    00000E24 ACE7                   BRA         L961
    00000E26 1FC1                   MOV.L       R12,@(4,R15)
    00000E28              L998:                             
      XY_paramet   421            }
      XY_paramet   422    }
    00000E28 910D                   MOV.W       L1076+6,R1 ; H'00BC
    00000E2A 3F1C                   ADD         R1,R15
    00000E2C 4F16                   LDS.L       @R15+,MACL
    00000E2E 4F26                   LDS.L       @R15+,PR
    00000E30 68F6                   MOV.L       @R15+,R8
    00000E32 69F6                   MOV.L       @R15+,R9
    00000E34 6AF6                   MOV.L       @R15+,R10
    00000E36 6BF6                   MOV.L       @R15+,R11
    00000E38 6CF6                   MOV.L       @R15+,R12
    00000E3A 6DF6                   MOV.L       @R15+,R13
    00000E3C 000B                   RTS
    00000E3E 6EF6                   MOV.L       @R15+,R14
    00000E40              L1076:                            
    00000E40 7542                   .DATA.W     H'7542
    00000E42 7547                   .DATA.W     H'7547
    00000E44 7534                   .DATA.W     H'7534
    00000E46 00BC                   .DATA.W     H'00BC
    00000E48 <00000000>             .DATA.L     _key
    00000E4C <00000000>             .DATA.L     _GetPressChar
    00000E50 <00000000>             .DATA.L     _InputString
    00000E54 <00000000>             .DATA.L     _strncpy
      XY_paramet   423    
      XY_paramet   424    
      XY_paramet   425    double sd_to_xyaSrd( double stake, double distance, double angle, int xya )
    00000E58              _sd_to_xyaSrd:                   ; function: sd_to_xyaSrd
                                                           ; frame size=140
                                                           ; used runtime library name:
                                                           ; __divdr, __dtoi, __ltd, __ged, __led
    00000E58 2FE6                   MOV.L       R14,@-R15
      XY_paramet   426    {       
      XY_paramet   427    
      XY_paramet   428        int i;
      XY_paramet   429            double xy_a;
      XY_paramet   430            double xy_qr;
      XY_paramet   431            double xy_zr;
      XY_paramet   432            
      XY_paramet   433            for(i=0; i<=route.size; i++)
    00000E5A E54C                   MOV         #76,R5
    00000E5C 2FD6                   MOV.L       R13,@-R15




SH SERIES C/C++ Compiler (Ver. 6.0C)                                                                 01-Jun-2015 13:45:28  PAGE   41


SCT OFFSET   CODE       C LABEL     INSTRUCTION OPERAND    COMMENT

    00000E5E 2FC6                   MOV.L       R12,@-R15
    00000E60 2FB6                   MOV.L       R11,@-R15
    00000E62 2FA6                   MOV.L       R10,@-R15
    00000E64 2F96                   MOV.L       R9,@-R15
    00000E66 2F86                   MOV.L       R8,@-R15
    00000E68 4F22                   STS.L       PR,@-R15
    00000E6A 4F12                   STS.L       MACL,@-R15
    00000E6C D893                   MOV.L       L1078,R8   ; _zbzs_y
    00000E6E 7FE4                   ADD         #-28,R15
    00000E70 D993                   MOV.L       L1078+4,R9 ; _zbzs_x
    00000E72 2F42                   MOV.L       R4,@R15
    00000E74 DA93                   MOV.L       L1078+8,R10; _intialCZb
    00000E76 DB94                   MOV.L       L1078+12,R11; _deg
    00000E78 DC94                   MOV.L       L1078+16,R12; _route
    00000E7A A109                   BRA         L1017
    00000E7C E400                   MOV         #0,R4
    00000E7E              L1018:                            
    00000E7E E048                   MOV         #72,R0
    00000E80 5EC8                   MOV.L       @(32,R12),R14
    00000E82 02FE                   MOV.L       @(R0,R15),R2
    00000E84 2F26                   MOV.L       R2,@-R15
    00000E86 E048                   MOV         #72,R0
    00000E88 02FE                   MOV.L       @(R0,R15),R2
    00000E8A 2F26                   MOV.L       R2,@-R15
    00000E8C 53E4                   MOV.L       @(16,R14),R3
    00000E8E 2F36                   MOV.L       R3,@-R15
    00000E90 53E3                   MOV.L       @(12,R14),R3
    00000E92 D28F                   MOV.L       L1078+20,R2; __ltd
    00000E94 420B                   JSR         @R2
    00000E96 2F36                   MOV.L       R3,@-R15
    00000E98 8800                   CMP/EQ      #0,R0
    00000E9A 8D08                   BT/S        L1019
    00000E9C 0457                   MUL.L       R5,R4
      XY_paramet   434            {       
      XY_paramet   435     
      XY_paramet   436            if ( stake<route.set[0].qd_zh )  stake=route.set[0].qd_zh;
    00000E9E 63E3                   MOV         R14,R3
    00000EA0 730C                   ADD         #12,R3
    00000EA2 61F3                   MOV         R15,R1
    00000EA4 6232                   MOV.L       @R3,R2
    00000EA6 7144                   ADD         #68,R1
    00000EA8 2122                   MOV.L       R2,@R1
    00000EAA 5231                   MOV.L       @(4,R3),R2
    00000EAC 1121                   MOV.L       R2,@(4,R1)
    00000EAE              L1019:                            
    00000EAE 0D1A                   STS         MACL,R13
    00000EB0 D288                   MOV.L       L1078+24,R2; __ged
    00000EB2 E048                   MOV         #72,R0
    00000EB4 03FE                   MOV.L       @(R0,R15),R3
    00000EB6 66E3                   MOV         R14,R6
    00000EB8 2F36                   MOV.L       R3,@-R15
    00000EBA E048                   MOV         #72,R0
    00000EBC 03FE                   MOV.L       @(R0,R15),R3
    00000EBE 36DC                   ADD         R13,R6
    00000EC0 2F36                   MOV.L       R3,@-R15
    00000EC2 5364                   MOV.L       @(16,R6),R3
    00000EC4 2F36                   MOV.L       R3,@-R15




SH SERIES C/C++ Compiler (Ver. 6.0C)                                                                 01-Jun-2015 13:45:28  PAGE   42


SCT OFFSET   CODE       C LABEL     INSTRUCTION OPERAND    COMMENT

    00000EC6 5363                   MOV.L       @(12,R6),R3
    00000EC8 420B                   JSR         @R2
    00000ECA 2F36                   MOV.L       R3,@-R15
    00000ECC 8800                   CMP/EQ      #0,R0
    00000ECE 8B01                   BF          L1079
    00000ED0 A0DD                   BRA         L1020
    00000ED2 0009                   NOP
    00000ED4              L1079:                            
    00000ED4 E048                   MOV         #72,R0
    00000ED6 03FE                   MOV.L       @(R0,R15),R3
    00000ED8 2F36                   MOV.L       R3,@-R15
    00000EDA E048                   MOV         #72,R0
    00000EDC 03FE                   MOV.L       @(R0,R15),R3
    00000EDE 2F36                   MOV.L       R3,@-R15
    00000EE0 5266                   MOV.L       @(24,R6),R2
    00000EE2 2F26                   MOV.L       R2,@-R15
    00000EE4 5265                   MOV.L       @(20,R6),R2
    00000EE6 D37C                   MOV.L       L1078+28,R3; __led
    00000EE8 430B                   JSR         @R3
    00000EEA 2F26                   MOV.L       R2,@-R15
    00000EEC 8800                   CMP/EQ      #0,R0
    00000EEE 8B01                   BF          L1080
    00000EF0 A0CD                   BRA         L1020
    00000EF2 0009                   NOP
    00000EF4              L1080:                            
      XY_paramet   437                    if( stake>=route.set[i].qd_zh && stake<=route.set[i].zd_zh )
      XY_paramet   438                    {       
      XY_paramet   439                    if (route.set[i].xy_qr < 1e-10)
    00000EF4 D179                   MOV.L       L1078+32,R1; H'D9D7BDBB
    00000EF6 62E3                   MOV         R14,R2
    00000EF8 32DC                   ADD         R13,R2
    00000EFA 723C                   ADD         #60,R2
    00000EFC 5321                   MOV.L       @(4,R2),R3
    00000EFE 2F36                   MOV.L       R3,@-R15
    00000F00 6322                   MOV.L       @R2,R3
    00000F02 2F36                   MOV.L       R3,@-R15
    00000F04 2F16                   MOV.L       R1,@-R15
    00000F06 D176                   MOV.L       L1078+36,R1; H'3DDB7CDF
    00000F08 D371                   MOV.L       L1078+20,R3; __ltd
    00000F0A 430B                   JSR         @R3
    00000F0C 2F16                   MOV.L       R1,@-R15
    00000F0E 8800                   CMP/EQ      #0,R0
    00000F10 8905                   BT          L1021
      XY_paramet   440                            {  
      XY_paramet   441                           xy_qr = 0;
    00000F12 62F3                   MOV         R15,R2
    00000F14 720C                   ADD         #12,R2
    00000F16 E100                   MOV         #0,R1
    00000F18 2212                   MOV.L       R1,@R2
    00000F1A A010                   BRA         L1022
    00000F1C 1211                   MOV.L       R1,@(4,R2)
    00000F1E              L1021:                            
      XY_paramet   442                        }
      XY_paramet   443                            else
      XY_paramet   444                            {  
      XY_paramet   445                           xy_qr = 1 / route.set[i].xy_qr;
    00000F1E E000                   MOV         #0,R0




SH SERIES C/C++ Compiler (Ver. 6.0C)                                                                 01-Jun-2015 13:45:28  PAGE   43


SCT OFFSET   CODE       C LABEL     INSTRUCTION OPERAND    COMMENT

    00000F20 D171                   MOV.L       L1078+44,R1; __divdr
    00000F22 63E3                   MOV         R14,R3
    00000F24 2F06                   MOV.L       R0,@-R15
    00000F26 33DC                   ADD         R13,R3
    00000F28 D06E                   MOV.L       L1078+40,R0; H'3FF00000
    00000F2A 733C                   ADD         #60,R3
    00000F2C 2F06                   MOV.L       R0,@-R15
    00000F2E 5231                   MOV.L       @(4,R3),R2
    00000F30 2F26                   MOV.L       R2,@-R15
    00000F32 6232                   MOV.L       @R3,R2
    00000F34 2F26                   MOV.L       R2,@-R15
    00000F36 60F3                   MOV         R15,R0
    00000F38 701C                   ADD         #28,R0
    00000F3A 410B                   JSR         @R1
    00000F3C 2F06                   MOV.L       R0,@-R15
    00000F3E              L1022:                            
      XY_paramet   446                            }
      XY_paramet   447                            if (route.set[i].xy_zr < 1e-10)
    00000F3E 63E3                   MOV         R14,R3
    00000F40 D166                   MOV.L       L1078+32,R1; H'D9D7BDBB
    00000F42 33DC                   ADD         R13,R3
    00000F44 7344                   ADD         #68,R3
    00000F46 5231                   MOV.L       @(4,R3),R2
    00000F48 2F26                   MOV.L       R2,@-R15
    00000F4A 6232                   MOV.L       @R3,R2
    00000F4C D360                   MOV.L       L1078+20,R3; __ltd
    00000F4E 2F26                   MOV.L       R2,@-R15
    00000F50 2F16                   MOV.L       R1,@-R15
    00000F52 D163                   MOV.L       L1078+36,R1; H'3DDB7CDF
    00000F54 430B                   JSR         @R3
    00000F56 2F16                   MOV.L       R1,@-R15
    00000F58 8800                   CMP/EQ      #0,R0
    00000F5A 8905                   BT          L1023
      XY_paramet   448                            {  
      XY_paramet   449                           xy_zr=0;
    00000F5C 62F3                   MOV         R15,R2
    00000F5E 7204                   ADD         #4,R2
    00000F60 E100                   MOV         #0,R1
    00000F62 2212                   MOV.L       R1,@R2
    00000F64 A010                   BRA         L1024
    00000F66 1211                   MOV.L       R1,@(4,R2)
    00000F68              L1023:                            
      XY_paramet   450                        }
      XY_paramet   451                            else
      XY_paramet   452                            {  
      XY_paramet   453                   xy_zr = 1 / route.set[i].xy_zr;
    00000F68 D15F                   MOV.L       L1078+44,R1; __divdr
    00000F6A E000                   MOV         #0,R0
    00000F6C 2F06                   MOV.L       R0,@-R15
    00000F6E 63E3                   MOV         R14,R3
    00000F70 D05C                   MOV.L       L1078+40,R0; H'3FF00000
    00000F72 33DC                   ADD         R13,R3
    00000F74 2F06                   MOV.L       R0,@-R15
    00000F76 7344                   ADD         #68,R3
    00000F78 5231                   MOV.L       @(4,R3),R2
    00000F7A 2F26                   MOV.L       R2,@-R15
    00000F7C 6232                   MOV.L       @R3,R2




SH SERIES C/C++ Compiler (Ver. 6.0C)                                                                 01-Jun-2015 13:45:28  PAGE   44


SCT OFFSET   CODE       C LABEL     INSTRUCTION OPERAND    COMMENT

    00000F7E 2F26                   MOV.L       R2,@-R15
    00000F80 60F3                   MOV         R15,R0
    00000F82 7014                   ADD         #20,R0
    00000F84 410B                   JSR         @R1
    00000F86 2F06                   MOV.L       R0,@-R15
    00000F88              L1024:                            
      XY_paramet   454                            }
      XY_paramet   455                            
      XY_paramet   456                            xy_a=deg(route.set[i].xy_a);
    00000F88 3EDC                   ADD         R13,R14
    00000F8A 53EC                   MOV.L       @(48,R14),R3
    00000F8C 2F36                   MOV.L       R3,@-R15
    00000F8E 53EB                   MOV.L       @(44,R14),R3
    00000F90 2F36                   MOV.L       R3,@-R15
    00000F92 62F3                   MOV         R15,R2
    00000F94 721C                   ADD         #28,R2
    00000F96 4B0B                   JSR         @R11
    00000F98 2F26                   MOV.L       R2,@-R15
      XY_paramet   457                            
      XY_paramet   458                        intialCZb(route.set[i].qd_zh, route.set[i].zd_zh, route.set[i].xy_x,route.set[i].xy_y,
                         + xy_a,route.set[i].xy_v,xy_qr,xy_zr);
    00000F9A 51F5                   MOV.L       @(20,R15),R1
    00000F9C 2F16                   MOV.L       R1,@-R15
    00000F9E 51F5                   MOV.L       @(20,R15),R1
    00000FA0 2F16                   MOV.L       R1,@-R15
    00000FA2 53F9                   MOV.L       @(36,R15),R3
    00000FA4 2F36                   MOV.L       R3,@-R15
    00000FA6 53F9                   MOV.L       @(36,R15),R3
    00000FA8 2F36                   MOV.L       R3,@-R15
    00000FAA 52FD                   MOV.L       @(52,R15),R2
    00000FAC 2F26                   MOV.L       R2,@-R15
    00000FAE 52FD                   MOV.L       @(52,R15),R2
    00000FB0 2F26                   MOV.L       R2,@-R15
    00000FB2 5EC8                   MOV.L       @(32,R12),R14
    00000FB4 3EDC                   ADD         R13,R14
    00000FB6 53EA                   MOV.L       @(40,R14),R3
    00000FB8 2F36                   MOV.L       R3,@-R15
    00000FBA 53E9                   MOV.L       @(36,R14),R3
    00000FBC 2F36                   MOV.L       R3,@-R15
    00000FBE 52E8                   MOV.L       @(32,R14),R2
    00000FC0 2F26                   MOV.L       R2,@-R15
    00000FC2 52E7                   MOV.L       @(28,R14),R2
    00000FC4 2F26                   MOV.L       R2,@-R15
    00000FC6 53E6                   MOV.L       @(24,R14),R3
    00000FC8 2F36                   MOV.L       R3,@-R15
    00000FCA 53E5                   MOV.L       @(20,R14),R3
    00000FCC 2F36                   MOV.L       R3,@-R15
    00000FCE 52E4                   MOV.L       @(16,R14),R2
    00000FD0 2F26                   MOV.L       R2,@-R15
    00000FD2 52E3                   MOV.L       @(12,R14),R2
    00000FD4 2F26                   MOV.L       R2,@-R15
    00000FD6 53EE                   MOV.L       @(56,R14),R3
    00000FD8 2F36                   MOV.L       R3,@-R15
    00000FDA 53ED                   MOV.L       @(52,R14),R3
    00000FDC D243                   MOV.L       L1078+48,R2; __dtoi
    00000FDE 420B                   JSR         @R2
    00000FE0 2F36                   MOV.L       R3,@-R15




SH SERIES C/C++ Compiler (Ver. 6.0C)                                                                 01-Jun-2015 13:45:28  PAGE   45


SCT OFFSET   CODE       C LABEL     INSTRUCTION OPERAND    COMMENT

    00000FE2 4A0B                   JSR         @R10
    00000FE4 6403                   MOV         R0,R4
    00000FE6 7F44                   ADD         #68,R15
      XY_paramet   459                            
      XY_paramet   460                            switch( xya )
    00000FE8 60F2                   MOV.L       @R15,R0
    00000FEA 8800                   CMP/EQ      #0,R0
    00000FEC 8903                   BT          L858
    00000FEE 8801                   CMP/EQ      #1,R0
    00000FF0 891A                   BT          L859
    00000FF2 A032                   BRA         L860
    00000FF4 0009                   NOP
    00000FF6              L858:                            ; case label 
      XY_paramet   461                            {       case 0:
      XY_paramet   462                                            return zbzs_x(stake, distance, angle);
    00000FF6 E058                   MOV         #88,R0
    00000FF8 03FE                   MOV.L       @(R0,R15),R3
    00000FFA E058                   MOV         #88,R0
    00000FFC 2F36                   MOV.L       R3,@-R15
    00000FFE 03FE                   MOV.L       @(R0,R15),R3
    00001000 2F36                   MOV.L       R3,@-R15
    00001002 E058                   MOV         #88,R0
    00001004 02FE                   MOV.L       @(R0,R15),R2
    00001006 E058                   MOV         #88,R0
    00001008 2F26                   MOV.L       R2,@-R15
    0000100A 02FE                   MOV.L       @(R0,R15),R2
    0000100C 2F26                   MOV.L       R2,@-R15
    0000100E E058                   MOV         #88,R0
    00001010 03FE                   MOV.L       @(R0,R15),R3
    00001012 E058                   MOV         #88,R0
    00001014 2F36                   MOV.L       R3,@-R15
    00001016 03FE                   MOV.L       @(R0,R15),R3
    00001018 2F36                   MOV.L       R3,@-R15
    0000101A 62F3                   MOV         R15,R2
    0000101C 7258                   ADD         #88,R2
    0000101E 6222                   MOV.L       @R2,R2
    00001020 490B                   JSR         @R9
    00001022 2F26                   MOV.L       R2,@-R15
    00001024 A031                   BRA         L1049
    00001026 0009                   NOP
    00001028              L859:                            ; case label 
      XY_paramet   463                                            break;
      XY_paramet   464                                    case 1:
      XY_paramet   465                                            return zbzs_y(stake, distance, angle);
    00001028 E058                   MOV         #88,R0
    0000102A 02FE                   MOV.L       @(R0,R15),R2
    0000102C 2F26                   MOV.L       R2,@-R15
    0000102E E058                   MOV         #88,R0
    00001030 02FE                   MOV.L       @(R0,R15),R2
    00001032 E058                   MOV         #88,R0
    00001034 2F26                   MOV.L       R2,@-R15
    00001036 03FE                   MOV.L       @(R0,R15),R3
    00001038 2F36                   MOV.L       R3,@-R15
    0000103A E058                   MOV         #88,R0
    0000103C 03FE                   MOV.L       @(R0,R15),R3
    0000103E E058                   MOV         #88,R0
    00001040 2F36                   MOV.L       R3,@-R15




SH SERIES C/C++ Compiler (Ver. 6.0C)                                                                 01-Jun-2015 13:45:28  PAGE   46


SCT OFFSET   CODE       C LABEL     INSTRUCTION OPERAND    COMMENT

    00001042 02FE                   MOV.L       @(R0,R15),R2
    00001044 2F26                   MOV.L       R2,@-R15
    00001046 E058                   MOV         #88,R0
    00001048 02FE                   MOV.L       @(R0,R15),R2
    0000104A 2F26                   MOV.L       R2,@-R15
    0000104C 63F3                   MOV         R15,R3
    0000104E 7358                   ADD         #88,R3
    00001050 6332                   MOV.L       @R3,R3
    00001052 480B                   JSR         @R8
    00001054 2F36                   MOV.L       R3,@-R15
    00001056 A018                   BRA         L1049
    00001058 0009                   NOP
    0000105A              L860:                            ; default label 
      XY_paramet   466                                            break;
      XY_paramet   467                                    default:
      XY_paramet   468                                            return zbzs_a(stake, distance, angle);
    0000105A E058                   MOV         #88,R0
    0000105C D124                   MOV.L       L1078+52,R1; _zbzs_a
    0000105E 03FE                   MOV.L       @(R0,R15),R3
    00001060 2F36                   MOV.L       R3,@-R15
    00001062 E058                   MOV         #88,R0
    00001064 03FE                   MOV.L       @(R0,R15),R3
    00001066 E058                   MOV         #88,R0
    00001068 2F36                   MOV.L       R3,@-R15
    0000106A 02FE                   MOV.L       @(R0,R15),R2
    0000106C 2F26                   MOV.L       R2,@-R15
    0000106E E058                   MOV         #88,R0
    00001070 02FE                   MOV.L       @(R0,R15),R2
    00001072 E058                   MOV         #88,R0
    00001074 2F26                   MOV.L       R2,@-R15
    00001076 03FE                   MOV.L       @(R0,R15),R3
    00001078 2F36                   MOV.L       R3,@-R15
    0000107A E058                   MOV         #88,R0
    0000107C 03FE                   MOV.L       @(R0,R15),R3
    0000107E 2F36                   MOV.L       R3,@-R15
    00001080 62F3                   MOV         R15,R2
    00001082 7258                   ADD         #88,R2
    00001084 6222                   MOV.L       @R2,R2
    00001086 410B                   JSR         @R1
    00001088 2F26                   MOV.L       R2,@-R15
    0000108A              L1049:                            
    0000108A A00C                   BRA         L1026
    0000108C 7F1C                   ADD         #28,R15
    0000108E              L1020:                            
    0000108E 7401                   ADD         #1,R4
    00001090              L1017:                            
    00001090 53C9                   MOV.L       @(36,R12),R3
    00001092 3437                   CMP/GT      R3,R4
    00001094 8901                   BT          L1081
    00001096 AEF2                   BRA         L1018
    00001098 0009                   NOP
    0000109A              L1081:                            
      XY_paramet   469                            }
      XY_paramet   470                    }
      XY_paramet   471            }
      XY_paramet   472            return 0;       
    0000109A 61F3                   MOV         R15,R1




SH SERIES C/C++ Compiler (Ver. 6.0C)                                                                 01-Jun-2015 13:45:28  PAGE   47


SCT OFFSET   CODE       C LABEL     INSTRUCTION OPERAND    COMMENT

    0000109C 7140                   ADD         #64,R1
    0000109E E000                   MOV         #0,R0
    000010A0 6212                   MOV.L       @R1,R2
    000010A2 2202                   MOV.L       R0,@R2
    000010A4 1201                   MOV.L       R0,@(4,R2)
      XY_paramet   473    }
    000010A6              L1026:                            
    000010A6 7F1C                   ADD         #28,R15
    000010A8 4F16                   LDS.L       @R15+,MACL
    000010AA 4F26                   LDS.L       @R15+,PR
    000010AC 68F6                   MOV.L       @R15+,R8
    000010AE 69F6                   MOV.L       @R15+,R9
    000010B0 6AF6                   MOV.L       @R15+,R10
    000010B2 6BF6                   MOV.L       @R15+,R11
    000010B4 6CF6                   MOV.L       @R15+,R12
    000010B6 6DF6                   MOV.L       @R15+,R13
    000010B8 000B                   RTS
    000010BA 6EF6                   MOV.L       @R15+,R14
    000010BC              L1078:                            
    000010BC <00000000>             .DATA.L     _zbzs_y
    000010C0 <00000000>             .DATA.L     _zbzs_x
    000010C4 <00000000>             .DATA.L     _intialCZb
    000010C8 <00000000>             .DATA.L     _deg
    000010CC <00000000>             .DATA.L     _route
    000010D0 <00000000>             .DATA.L     __ltd
    000010D4 <00000000>             .DATA.L     __ged
    000010D8 <00000000>             .DATA.L     __led
    000010DC D9D7BDBB               .DATA.L     H'D9D7BDBB
    000010E0 3DDB7CDF               .DATA.L     H'3DDB7CDF
    000010E4 3FF00000               .DATA.L     H'3FF00000
    000010E8 <00000000>             .DATA.L     __divdr
    000010EC <00000000>             .DATA.L     __dtoi
    000010F0 <00000000>             .DATA.L     _zbzs_a
      XY_paramet   474    
      XY_paramet   475    
      XY_paramet   476    
      XY_paramet   477    double xy_to_sdSrd( double PX, double PY, int sd )
    000010F4              _xy_to_sdSrd:                    ; function: xy_to_sdSrd
                                                           ; frame size=280
                                                           ; used runtime library name:
                                                           ; __addd, __subdr, __muld, __divdr, __dtoi, __ltd, __led
    000010F4 2FE6                   MOV.L       R14,@-R15
    000010F6 2FD6                   MOV.L       R13,@-R15
    000010F8 2FC6                   MOV.L       R12,@-R15
    000010FA 2FB6                   MOV.L       R11,@-R15
    000010FC 2FA6                   MOV.L       R10,@-R15
    000010FE 2F96                   MOV.L       R9,@-R15
    00001100 2F86                   MOV.L       R8,@-R15
    00001102 4F22                   STS.L       PR,@-R15
    00001104 4F12                   STS.L       MACL,@-R15
    00001106 901F                   MOV.W       L1082,R0   ; H'FF7C
      XY_paramet   478    {       
      XY_paramet   479    
      XY_paramet   480            double x = PX;
    00001108 931F                   MOV.W       L1082+2,R3 ; H'00AC
    0000110A 3F0C                   ADD         R0,R15
    0000110C 2F42                   MOV.L       R4,@R15




SH SERIES C/C++ Compiler (Ver. 6.0C)                                                                 01-Jun-2015 13:45:28  PAGE   48


SCT OFFSET   CODE       C LABEL     INSTRUCTION OPERAND    COMMENT

    0000110E 33FC                   ADD         R15,R3
      XY_paramet   481            double y = PY;
    00001110 901C                   MOV.W       L1082+4,R0 ; H'00B4
    00001112 62F3                   MOV         R15,R2
    00001114 6132                   MOV.L       @R3,R1
    00001116 30FC                   ADD         R15,R0
    00001118 727C                   ADD         #124,R2
    0000111A 2212                   MOV.L       R1,@R2
    0000111C 5131                   MOV.L       @(4,R3),R1
    0000111E 63F3                   MOV         R15,R3
    00001120 1211                   MOV.L       R1,@(4,R2)
    00001122 7374                   ADD         #116,R3
    00001124 6202                   MOV.L       @R0,R2
      XY_paramet   482    
      XY_paramet   483            double stake   = 0;             
    00001126 61F3                   MOV         R15,R1
    00001128 2322                   MOV.L       R2,@R3
    0000112A 716C                   ADD         #108,R1
    0000112C 5201                   MOV.L       @(4,R0),R2
    0000112E 1321                   MOV.L       R2,@(4,R3)
    00001130 E300                   MOV         #0,R3
      XY_paramet   484            double mindist = 0;             
    00001132 62F3                   MOV         R15,R2
    00001134 2132                   MOV.L       R3,@R1
    00001136 6033                   MOV         R3,R0
    00001138 1131                   MOV.L       R3,@(4,R1)
    0000113A 7264                   ADD         #100,R2
    0000113C 2232                   MOV.L       R3,@R2
      XY_paramet   485            
      XY_paramet   486            int inum = 0;           
    0000113E 6403                   MOV         R0,R4
    00001140 1201                   MOV.L       R0,@(4,R2)
    00001142 6803                   MOV         R0,R8
      XY_paramet   487    
      XY_paramet   488            double ex, ey, ea;
      XY_paramet   489            double ped;
      XY_paramet   490            double sx, sy, sa;      
      XY_paramet   491            double psd;             
      XY_paramet   492        double swapdist;
      XY_paramet   493            int i;
      XY_paramet   494            double xy_a;
      XY_paramet   495            double xy_qr;
      XY_paramet   496            double xy_zr;
      XY_paramet   497            for(i=0; i<route.size; i++)
    00001144 A25B                   BRA         L1027
    00001146 6903                   MOV         R0,R9
    00001148              L1082:                            
    00001148 FF7C                   .DATA.W     H'FF7C
    0000114A 00AC                   .DATA.W     H'00AC
    0000114C 00B4                   .DATA.W     H'00B4
    0000114E              L1028:                            
      XY_paramet   498            {       
      XY_paramet   499                    sx = route.set[i].xy_x;
    0000114E E44C                   MOV         #76,R4
    00001150 5CE8                   MOV.L       @(32,R14),R12
    00001152 63F3                   MOV         R15,R3
    00001154 0947                   MUL.L       R4,R9




SH SERIES C/C++ Compiler (Ver. 6.0C)                                                                 01-Jun-2015 13:45:28  PAGE   49


SCT OFFSET   CODE       C LABEL     INSTRUCTION OPERAND    COMMENT

    00001156 733C                   ADD         #60,R3
    00001158 0D1A                   STS         MACL,R13
    0000115A 3CDC                   ADD         R13,R12
    0000115C 62C3                   MOV         R12,R2
    0000115E 721C                   ADD         #28,R2
    00001160 6122                   MOV.L       @R2,R1
      XY_paramet   500                    sy = route.set[i].xy_y;
    00001162 60C3                   MOV         R12,R0
    00001164 2312                   MOV.L       R1,@R3
    00001166 7024                   ADD         #36,R0
    00001168 5121                   MOV.L       @(4,R2),R1
    0000116A 1311                   MOV.L       R1,@(4,R3)
    0000116C 6202                   MOV.L       @R0,R2
    0000116E 63F3                   MOV         R15,R3
    00001170 7334                   ADD         #52,R3
    00001172 2322                   MOV.L       R2,@R3
    00001174 5201                   MOV.L       @(4,R0),R2
    00001176 1321                   MOV.L       R2,@(4,R3)
      XY_paramet   501                    sa = deg(route.set[i].xy_a);
    00001178 51CC                   MOV.L       @(48,R12),R1
    0000117A 2F16                   MOV.L       R1,@-R15
    0000117C 51CB                   MOV.L       @(44,R12),R1
    0000117E 2F16                   MOV.L       R1,@-R15
    00001180 D243                   MOV.L       L1083+6,R2 ; _deg
    00001182 63F3                   MOV         R15,R3
    00001184 7334                   ADD         #52,R3
    00001186 420B                   JSR         @R2
    00001188 2F36                   MOV.L       R3,@-R15
      XY_paramet   502                    psd = (y - sy) * cos( rad(sa - 90) ) - (x - sx) * sin( rad(sa - 90) ); //½á¹û¿ÉÄÜÕý¸º
    0000118A 7FFC                   ADD         #-4,R15
    0000118C 907D                   MOV.W       L1083,R0   ; H'0088
    0000118E DC41                   MOV.L       L1083+10,R12; _rad
    00001190 03FE                   MOV.L       @(R0,R15),R3
    00001192 2F36                   MOV.L       R3,@-R15
    00001194 9079                   MOV.W       L1083,R0   ; H'0088
    00001196 03FE                   MOV.L       @(R0,R15),R3
    00001198 D13F                   MOV.L       L1083+14,R1; __subdr
    0000119A E050                   MOV         #80,R0
    0000119C 2F36                   MOV.L       R3,@-R15
    0000119E 02FE                   MOV.L       @(R0,R15),R2
    000011A0 2F26                   MOV.L       R2,@-R15
    000011A2 E050                   MOV         #80,R0
    000011A4 02FE                   MOV.L       @(R0,R15),R2
    000011A6 2F26                   MOV.L       R2,@-R15
    000011A8 63F3                   MOV         R15,R3
    000011AA 7310                   ADD         #16,R3
    000011AC 410B                   JSR         @R1
    000011AE 2F36                   MOV.L       R3,@-R15
    000011B0 D13B                   MOV.L       L1083+22,R1; __addd
    000011B2 7FE8                   ADD         #-24,R15
    000011B4 E058                   MOV         #88,R0
    000011B6 E300                   MOV         #0,R3
    000011B8 02FE                   MOV.L       @(R0,R15),R2
    000011BA E058                   MOV         #88,R0
    000011BC 2F26                   MOV.L       R2,@-R15
    000011BE 02FE                   MOV.L       @(R0,R15),R2
    000011C0 2F26                   MOV.L       R2,@-R15




SH SERIES C/C++ Compiler (Ver. 6.0C)                                                                 01-Jun-2015 13:45:28  PAGE   50


SCT OFFSET   CODE       C LABEL     INSTRUCTION OPERAND    COMMENT

    000011C2 2F36                   MOV.L       R3,@-R15
    000011C4 D335                   MOV.L       L1083+18,R3; H'C0568000
    000011C6 2F36                   MOV.L       R3,@-R15
    000011C8 62F3                   MOV         R15,R2
    000011CA 7210                   ADD         #16,R2
    000011CC 410B                   JSR         @R1
    000011CE 2F26                   MOV.L       R2,@-R15
    000011D0 E308                   MOV         #8,R3
    000011D2 33FC                   ADD         R15,R3
    000011D4 4C0B                   JSR         @R12
    000011D6 2F36                   MOV.L       R3,@-R15
    000011D8 D332                   MOV.L       L1083+26,R3; _cos
    000011DA 7F0C                   ADD         #12,R15
    000011DC E008                   MOV         #8,R0
    000011DE 30FC                   ADD         R15,R0
    000011E0 430B                   JSR         @R3
    000011E2 2F06                   MOV.L       R0,@-R15
    000011E4 D330                   MOV.L       L1083+30,R3; __muld
    000011E6 7F0C                   ADD         #12,R15
    000011E8 60F3                   MOV         R15,R0
    000011EA 7010                   ADD         #16,R0
    000011EC 430B                   JSR         @R3
    000011EE 2F06                   MOV.L       R0,@-R15
    000011F0 904C                   MOV.W       L1083+2,R0 ; H'0098
    000011F2 7FF0                   ADD         #-16,R15
    000011F4 D128                   MOV.L       L1083+14,R1; __subdr
    000011F6 02FE                   MOV.L       @(R0,R15),R2
    000011F8 9048                   MOV.W       L1083+2,R0 ; H'0098
    000011FA 2F26                   MOV.L       R2,@-R15
    000011FC 02FE                   MOV.L       @(R0,R15),R2
    000011FE E060                   MOV         #96,R0
    00001200 2F26                   MOV.L       R2,@-R15
    00001202 03FE                   MOV.L       @(R0,R15),R3
    00001204 2F36                   MOV.L       R3,@-R15
    00001206 E060                   MOV         #96,R0
    00001208 03FE                   MOV.L       @(R0,R15),R3
    0000120A 2F36                   MOV.L       R3,@-R15
    0000120C 62F3                   MOV         R15,R2
    0000120E 7210                   ADD         #16,R2
    00001210 410B                   JSR         @R1
    00001212 2F26                   MOV.L       R2,@-R15
    00001214 D122                   MOV.L       L1083+22,R1; __addd
    00001216 7FE8                   ADD         #-24,R15
    00001218 E060                   MOV         #96,R0
    0000121A E200                   MOV         #0,R2
    0000121C 03FE                   MOV.L       @(R0,R15),R3
    0000121E E060                   MOV         #96,R0
    00001220 2F36                   MOV.L       R3,@-R15
    00001222 03FE                   MOV.L       @(R0,R15),R3
    00001224 2F36                   MOV.L       R3,@-R15
    00001226 2F26                   MOV.L       R2,@-R15
    00001228 D21C                   MOV.L       L1083+18,R2; H'C0568000
    0000122A 2F26                   MOV.L       R2,@-R15
    0000122C 63F3                   MOV         R15,R3
    0000122E 7310                   ADD         #16,R3
    00001230 410B                   JSR         @R1
    00001232 2F36                   MOV.L       R3,@-R15




SH SERIES C/C++ Compiler (Ver. 6.0C)                                                                 01-Jun-2015 13:45:28  PAGE   51


SCT OFFSET   CODE       C LABEL     INSTRUCTION OPERAND    COMMENT

    00001234 E208                   MOV         #8,R2
    00001236 32FC                   ADD         R15,R2
    00001238 4C0B                   JSR         @R12
    0000123A 2F26                   MOV.L       R2,@-R15
    0000123C D21B                   MOV.L       L1083+34,R2; _sin
    0000123E 7F0C                   ADD         #12,R15
    00001240 E008                   MOV         #8,R0
    00001242 30FC                   ADD         R15,R0
    00001244 420B                   JSR         @R2
    00001246 2F06                   MOV.L       R0,@-R15
    00001248 D217                   MOV.L       L1083+30,R2; __muld
    0000124A 7F0C                   ADD         #12,R15
    0000124C 60F3                   MOV         R15,R0
    0000124E 7010                   ADD         #16,R0
    00001250 420B                   JSR         @R2
    00001252 2F06                   MOV.L       R0,@-R15
    00001254 D310                   MOV.L       L1083+14,R3; __subdr
    00001256 61F3                   MOV         R15,R1
    00001258 7134                   ADD         #52,R1
    0000125A 430B                   JSR         @R3
    0000125C 2F16                   MOV.L       R1,@-R15
    0000125E 5AE8                   MOV.L       @(32,R14),R10
    00001260 D113                   MOV.L       L1083+38,R1; H'D9D7BDBB
    00001262 63A3                   MOV         R10,R3
    00001264 33DC                   ADD         R13,R3
    00001266 733C                   ADD         #60,R3
    00001268 5231                   MOV.L       @(4,R3),R2
    0000126A 2F26                   MOV.L       R2,@-R15
    0000126C 6232                   MOV.L       @R3,R2
    0000126E 2F26                   MOV.L       R2,@-R15
    00001270 2F16                   MOV.L       R1,@-R15
    00001272 D110                   MOV.L       L1083+42,R1; H'3DDB7CDF
    00001274 D310                   MOV.L       L1083+46,R3; __ltd
    00001276 430B                   JSR         @R3
    00001278 2F16                   MOV.L       R1,@-R15
    0000127A 8800                   CMP/EQ      #0,R0
    0000127C 891E                   BT          L1029
      XY_paramet   503                    
      XY_paramet   504                    if (route.set[i].xy_qr < 1e-10)
      XY_paramet   505                            {  
      XY_paramet   506                           xy_qr = 0;
    0000127E 62F3                   MOV         R15,R2
    00001280 720C                   ADD         #12,R2
    00001282 E100                   MOV         #0,R1
    00001284 2212                   MOV.L       R1,@R2
    00001286 A029                   BRA         L1030
    00001288 1211                   MOV.L       R1,@(4,R2)
    0000128A              L1083:                            
    0000128A 0088                   .DATA.W     H'0088
    0000128C 0098                   .DATA.W     H'0098
    0000128E 0000                   .DATA.W     0
    00001290 <00000000>             .DATA.L     _deg
    00001294 <00000000>             .DATA.L     _rad
    00001298 <00000000>             .DATA.L     __subdr
    0000129C C0568000               .DATA.L     H'C0568000
    000012A0 <00000000>             .DATA.L     __addd
    000012A4 <00000000>             .DATA.L     _cos




SH SERIES C/C++ Compiler (Ver. 6.0C)                                                                 01-Jun-2015 13:45:28  PAGE   52


SCT OFFSET   CODE       C LABEL     INSTRUCTION OPERAND    COMMENT

    000012A8 <00000000>             .DATA.L     __muld
    000012AC <00000000>             .DATA.L     _sin
    000012B0 D9D7BDBB               .DATA.L     H'D9D7BDBB
    000012B4 3DDB7CDF               .DATA.L     H'3DDB7CDF
    000012B8 <00000000>             .DATA.L     __ltd
    000012BC              L1029:                            
      XY_paramet   507                        }
      XY_paramet   508                            else
      XY_paramet   509                            {  
      XY_paramet   510                           xy_qr = 1 / route.set[i].xy_qr;
    000012BC D113                   MOV.L       L1084+6,R1 ; __divdr
    000012BE E000                   MOV         #0,R0
    000012C0 2F06                   MOV.L       R0,@-R15
    000012C2 63A3                   MOV         R10,R3
    000012C4 D010                   MOV.L       L1084+2,R0 ; H'3FF00000
    000012C6 33DC                   ADD         R13,R3
    000012C8 2F06                   MOV.L       R0,@-R15
    000012CA 733C                   ADD         #60,R3
    000012CC 5231                   MOV.L       @(4,R3),R2
    000012CE 2F26                   MOV.L       R2,@-R15
    000012D0 6232                   MOV.L       @R3,R2
    000012D2 2F26                   MOV.L       R2,@-R15
    000012D4 60F3                   MOV         R15,R0
    000012D6 701C                   ADD         #28,R0
    000012D8 410B                   JSR         @R1
    000012DA 2F06                   MOV.L       R0,@-R15
    000012DC              L1030:                            
      XY_paramet   511                            }
      XY_paramet   512                    if (route.set[i].xy_zr < 1e-10)
    000012DC D10C                   MOV.L       L1084+10,R1; H'D9D7BDBB
    000012DE 63A3                   MOV         R10,R3
    000012E0 33DC                   ADD         R13,R3
    000012E2 7344                   ADD         #68,R3
    000012E4 5231                   MOV.L       @(4,R3),R2
    000012E6 2F26                   MOV.L       R2,@-R15
    000012E8 6232                   MOV.L       @R3,R2
    000012EA 2F26                   MOV.L       R2,@-R15
    000012EC 2F16                   MOV.L       R1,@-R15
    000012EE D109                   MOV.L       L1084+14,R1; H'3DDB7CDF
    000012F0 D309                   MOV.L       L1084+18,R3; __ltd
    000012F2 430B                   JSR         @R3
    000012F4 2F16                   MOV.L       R1,@-R15
    000012F6 8800                   CMP/EQ      #0,R0
    000012F8 8910                   BT          L1031
      XY_paramet   513                            {  
      XY_paramet   514                           xy_zr=0;
    000012FA 62F3                   MOV         R15,R2
    000012FC 7204                   ADD         #4,R2
    000012FE E100                   MOV         #0,R1
    00001300 2212                   MOV.L       R1,@R2
    00001302 A01B                   BRA         L1032
    00001304 1211                   MOV.L       R1,@(4,R2)
    00001306              L1084:                            
    00001306 0000                   .DATA.W     0
    00001308 3FF00000               .DATA.L     H'3FF00000
    0000130C <00000000>             .DATA.L     __divdr
    00001310 D9D7BDBB               .DATA.L     H'D9D7BDBB




SH SERIES C/C++ Compiler (Ver. 6.0C)                                                                 01-Jun-2015 13:45:28  PAGE   53


SCT OFFSET   CODE       C LABEL     INSTRUCTION OPERAND    COMMENT

    00001314 3DDB7CDF               .DATA.L     H'3DDB7CDF
    00001318 <00000000>             .DATA.L     __ltd
    0000131C              L1031:                            
      XY_paramet   515                        }
      XY_paramet   516                            else
      XY_paramet   517                            {  
      XY_paramet   518                   xy_zr = 1 / route.set[i].xy_zr;
    0000131C D166                   MOV.L       L1085+16,R1; __divdr
    0000131E E000                   MOV         #0,R0
    00001320 2F06                   MOV.L       R0,@-R15
    00001322 63A3                   MOV         R10,R3
    00001324 D063                   MOV.L       L1085+12,R0; H'3FF00000
    00001326 33DC                   ADD         R13,R3
    00001328 2F06                   MOV.L       R0,@-R15
    0000132A 7344                   ADD         #68,R3
    0000132C 5231                   MOV.L       @(4,R3),R2
    0000132E 2F26                   MOV.L       R2,@-R15
    00001330 6232                   MOV.L       @R3,R2
    00001332 2F26                   MOV.L       R2,@-R15
    00001334 60F3                   MOV         R15,R0
    00001336 7014                   ADD         #20,R0
    00001338 410B                   JSR         @R1
    0000133A 2F06                   MOV.L       R0,@-R15
    0000133C              L1032:                            
      XY_paramet   519                            }
      XY_paramet   520    
      XY_paramet   521                    intialCZb(route.set[i].qd_zh, route.set[i].zd_zh, route.set[i].xy_x,route.set[i].xy_y,deg(
                         +route.set[i].xy_a),route.set[i].xy_v,xy_qr,xy_zr);
    0000133C 53F2                   MOV.L       @(8,R15),R3
    0000133E 3ADC                   ADD         R13,R10
    00001340 D15E                   MOV.L       L1085+20,R1; _deg
    00001342 2F36                   MOV.L       R3,@-R15
    00001344 53F2                   MOV.L       @(8,R15),R3
    00001346 2F36                   MOV.L       R3,@-R15
    00001348 52F6                   MOV.L       @(24,R15),R2
    0000134A 2F26                   MOV.L       R2,@-R15
    0000134C 52F6                   MOV.L       @(24,R15),R2
    0000134E 2F26                   MOV.L       R2,@-R15
    00001350 7FF8                   ADD         #-8,R15
    00001352 E208                   MOV         #8,R2
    00001354 53AC                   MOV.L       @(48,R10),R3
    00001356 2F36                   MOV.L       R3,@-R15
    00001358 53AB                   MOV.L       @(44,R10),R3
    0000135A 2F36                   MOV.L       R3,@-R15
    0000135C 32FC                   ADD         R15,R2
    0000135E 410B                   JSR         @R1
    00001360 2F26                   MOV.L       R2,@-R15
    00001362 7F0C                   ADD         #12,R15
    00001364 5BE8                   MOV.L       @(32,R14),R11
    00001366 3BDC                   ADD         R13,R11
    00001368 53BA                   MOV.L       @(40,R11),R3
    0000136A 2F36                   MOV.L       R3,@-R15
    0000136C 53B9                   MOV.L       @(36,R11),R3
    0000136E 2F36                   MOV.L       R3,@-R15
    00001370 52B8                   MOV.L       @(32,R11),R2
    00001372 2F26                   MOV.L       R2,@-R15
    00001374 52B7                   MOV.L       @(28,R11),R2




SH SERIES C/C++ Compiler (Ver. 6.0C)                                                                 01-Jun-2015 13:45:28  PAGE   54


SCT OFFSET   CODE       C LABEL     INSTRUCTION OPERAND    COMMENT

    00001376 2F26                   MOV.L       R2,@-R15
    00001378 53B6                   MOV.L       @(24,R11),R3
    0000137A 2F36                   MOV.L       R3,@-R15
    0000137C 53B5                   MOV.L       @(20,R11),R3
    0000137E 2F36                   MOV.L       R3,@-R15
    00001380 52B4                   MOV.L       @(16,R11),R2
    00001382 2F26                   MOV.L       R2,@-R15
    00001384 52B3                   MOV.L       @(12,R11),R2
    00001386 2F26                   MOV.L       R2,@-R15
    00001388 53BE                   MOV.L       @(56,R11),R3
    0000138A 2F36                   MOV.L       R3,@-R15
    0000138C 53BD                   MOV.L       @(52,R11),R3
    0000138E D24C                   MOV.L       L1085+24,R2; __dtoi
    00001390 420B                   JSR         @R2
    00001392 2F36                   MOV.L       R3,@-R15
    00001394 D34B                   MOV.L       L1085+28,R3; _intialCZb
    00001396 430B                   JSR         @R3
    00001398 6403                   MOV         R0,R4
      XY_paramet   522    
      XY_paramet   523                    ex = zbzs_x(route.set[i].zd_zh, 0, 0);
    0000139A E200                   MOV         #0,R2
    0000139C 9184                   MOV.W       L1085,R1   ; H'00AC
    0000139E 6323                   MOV         R2,R3
    000013A0 DB49                   MOV.L       L1085+32,R11; _zbzs_x
    000013A2 2F26                   MOV.L       R2,@-R15
    000013A4 2F26                   MOV.L       R2,@-R15
    000013A6 2F26                   MOV.L       R2,@-R15
    000013A8 2F36                   MOV.L       R3,@-R15
    000013AA 52E8                   MOV.L       @(32,R14),R2
    000013AC 32DC                   ADD         R13,R2
    000013AE 5326                   MOV.L       @(24,R2),R3
    000013B0 2F36                   MOV.L       R3,@-R15
    000013B2 5325                   MOV.L       @(20,R2),R3
    000013B4 2F36                   MOV.L       R3,@-R15
    000013B6 31FC                   ADD         R15,R1
    000013B8 4B0B                   JSR         @R11
    000013BA 2F16                   MOV.L       R1,@-R15
      XY_paramet   524                    ey = zbzs_y(route.set[i].zd_zh, 0, 0);
    000013BC DB43                   MOV.L       L1085+36,R11; _zbzs_y
    000013BE E300                   MOV         #0,R3
    000013C0 9173                   MOV.W       L1085+2,R1 ; H'00C0
    000013C2 6233                   MOV         R3,R2
    000013C4 2F36                   MOV.L       R3,@-R15
    000013C6 2F36                   MOV.L       R3,@-R15
    000013C8 2F36                   MOV.L       R3,@-R15
    000013CA 2F26                   MOV.L       R2,@-R15
    000013CC 53E8                   MOV.L       @(32,R14),R3
    000013CE 33DC                   ADD         R13,R3
    000013D0 5236                   MOV.L       @(24,R3),R2
    000013D2 2F26                   MOV.L       R2,@-R15
    000013D4 5235                   MOV.L       @(20,R3),R2
    000013D6 2F26                   MOV.L       R2,@-R15
    000013D8 31FC                   ADD         R15,R1
    000013DA 4B0B                   JSR         @R11
    000013DC 2F16                   MOV.L       R1,@-R15
    000013DE 7F70                   ADD         #112,R15
      XY_paramet   525                    ea = zbzs_a(route.set[i].zd_zh, 0, 0);




SH SERIES C/C++ Compiler (Ver. 6.0C)                                                                 01-Jun-2015 13:45:28  PAGE   55


SCT OFFSET   CODE       C LABEL     INSTRUCTION OPERAND    COMMENT

    000013E0 DB3B                   MOV.L       L1085+40,R11; _zbzs_a
    000013E2 E300                   MOV         #0,R3
    000013E4 2F36                   MOV.L       R3,@-R15
    000013E6 6233                   MOV         R3,R2
    000013E8 2F36                   MOV.L       R3,@-R15
    000013EA 2F36                   MOV.L       R3,@-R15
    000013EC 2F26                   MOV.L       R2,@-R15
    000013EE 53E8                   MOV.L       @(32,R14),R3
    000013F0 33DC                   ADD         R13,R3
    000013F2 5236                   MOV.L       @(24,R3),R2
    000013F4 2F26                   MOV.L       R2,@-R15
    000013F6 5235                   MOV.L       @(20,R3),R2
    000013F8 2F26                   MOV.L       R2,@-R15
    000013FA 61F3                   MOV         R15,R1
    000013FC 7164                   ADD         #100,R1
    000013FE 4B0B                   JSR         @R11
    00001400 2F16                   MOV.L       R1,@-R15
      XY_paramet   526                    
      XY_paramet   527                    ped = (y - ey) * cos( rad(ea -90) ) - (x - ex) * sin( rad(ea - 90) );
    00001402 7F0C                   ADD         #12,R15
    00001404 9052                   MOV.W       L1085+4,R0 ; H'0088
    00001406 00FE                   MOV.L       @(R0,R15),R0
    00001408 D132                   MOV.L       L1085+44,R1; __subdr
    0000140A 2F06                   MOV.L       R0,@-R15
    0000140C 904E                   MOV.W       L1085+4,R0 ; H'0088
    0000140E 00FE                   MOV.L       @(R0,R15),R0
    00001410 2F06                   MOV.L       R0,@-R15
    00001412 E070                   MOV         #112,R0
    00001414 03FE                   MOV.L       @(R0,R15),R3
    00001416 E070                   MOV         #112,R0
    00001418 2F36                   MOV.L       R3,@-R15
    0000141A 03FE                   MOV.L       @(R0,R15),R3
    0000141C 2F36                   MOV.L       R3,@-R15
    0000141E 62F3                   MOV         R15,R2
    00001420 7210                   ADD         #16,R2
    00001422 410B                   JSR         @R1
    00001424 2F26                   MOV.L       R2,@-R15
    00001426 7FE8                   ADD         #-24,R15
    00001428 D12C                   MOV.L       L1085+52,R1; __addd
    0000142A E078                   MOV         #120,R0
    0000142C 03FE                   MOV.L       @(R0,R15),R3
    0000142E E200                   MOV         #0,R2
    00001430 2F36                   MOV.L       R3,@-R15
    00001432 E078                   MOV         #120,R0
    00001434 03FE                   MOV.L       @(R0,R15),R3
    00001436 2F36                   MOV.L       R3,@-R15
    00001438 2F26                   MOV.L       R2,@-R15
    0000143A D227                   MOV.L       L1085+48,R2; H'C0568000
    0000143C 2F26                   MOV.L       R2,@-R15
    0000143E 63F3                   MOV         R15,R3
    00001440 7310                   ADD         #16,R3
    00001442 410B                   JSR         @R1
    00001444 2F36                   MOV.L       R3,@-R15
    00001446 E208                   MOV         #8,R2
    00001448 32FC                   ADD         R15,R2
    0000144A 4C0B                   JSR         @R12
    0000144C 2F26                   MOV.L       R2,@-R15




SH SERIES C/C++ Compiler (Ver. 6.0C)                                                                 01-Jun-2015 13:45:28  PAGE   56


SCT OFFSET   CODE       C LABEL     INSTRUCTION OPERAND    COMMENT

    0000144E 7F0C                   ADD         #12,R15
    00001450 D223                   MOV.L       L1085+56,R2; _cos
    00001452 E008                   MOV         #8,R0
    00001454 30FC                   ADD         R15,R0
    00001456 420B                   JSR         @R2
    00001458 2F06                   MOV.L       R0,@-R15
    0000145A 7F0C                   ADD         #12,R15
    0000145C D221                   MOV.L       L1085+60,R2; __muld
    0000145E 60F3                   MOV         R15,R0
    00001460 7010                   ADD         #16,R0
    00001462 420B                   JSR         @R2
    00001464 2F06                   MOV.L       R0,@-R15
    00001466 7FF0                   ADD         #-16,R15
    00001468 9021                   MOV.W       L1085+6,R0 ; H'0098
    0000146A 03FE                   MOV.L       @(R0,R15),R3
    0000146C 901F                   MOV.W       L1085+6,R0 ; H'0098
    0000146E 2F36                   MOV.L       R3,@-R15
    00001470 03FE                   MOV.L       @(R0,R15),R3
    00001472 2F36                   MOV.L       R3,@-R15
    00001474 901C                   MOV.W       L1085+8,R0 ; H'0080
    00001476 02FE                   MOV.L       @(R0,R15),R2
    00001478 901A                   MOV.W       L1085+8,R0 ; H'0080
    0000147A 2F26                   MOV.L       R2,@-R15
    0000147C 02FE                   MOV.L       @(R0,R15),R2
    0000147E 2F26                   MOV.L       R2,@-R15
    00001480 D114                   MOV.L       L1085+44,R1; __subdr
    00001482 63F3                   MOV         R15,R3
    00001484 7310                   ADD         #16,R3
    00001486 410B                   JSR         @R1
    00001488 2F36                   MOV.L       R3,@-R15
    0000148A 7FE8                   ADD         #-24,R15
    0000148C 9010                   MOV.W       L1085+8,R0 ; H'0080
    0000148E E300                   MOV         #0,R3
    00001490 02FE                   MOV.L       @(R0,R15),R2
    00001492 2F26                   MOV.L       R2,@-R15
    00001494 900C                   MOV.W       L1085+8,R0 ; H'0080
    00001496 02FE                   MOV.L       @(R0,R15),R2
    00001498 2F26                   MOV.L       R2,@-R15
    0000149A 2F36                   MOV.L       R3,@-R15
    0000149C D30E                   MOV.L       L1085+48,R3; H'C0568000
    0000149E 2F36                   MOV.L       R3,@-R15
    000014A0 62F3                   MOV         R15,R2
    000014A2 7210                   ADD         #16,R2
    000014A4 A020                   BRA         L1050
    000014A6 2F26                   MOV.L       R2,@-R15
    000014A8              L1085:                            
    000014A8 00AC                   .DATA.W     H'00AC
    000014AA 00C0                   .DATA.W     H'00C0
    000014AC 0088                   .DATA.W     H'0088
    000014AE 0098                   .DATA.W     H'0098
    000014B0 0080                   .DATA.W     H'0080
    000014B2 0000                   .DATA.W     0
    000014B4 3FF00000               .DATA.L     H'3FF00000
    000014B8 <00000000>             .DATA.L     __divdr
    000014BC <00000000>             .DATA.L     _deg
    000014C0 <00000000>             .DATA.L     __dtoi
    000014C4 <00000000>             .DATA.L     _intialCZb




SH SERIES C/C++ Compiler (Ver. 6.0C)                                                                 01-Jun-2015 13:45:28  PAGE   57


SCT OFFSET   CODE       C LABEL     INSTRUCTION OPERAND    COMMENT

    000014C8 <00000000>             .DATA.L     _zbzs_x
    000014CC <00000000>             .DATA.L     _zbzs_y
    000014D0 <00000000>             .DATA.L     _zbzs_a
    000014D4 <00000000>             .DATA.L     __subdr
    000014D8 C0568000               .DATA.L     H'C0568000
    000014DC <00000000>             .DATA.L     __addd
    000014E0 <00000000>             .DATA.L     _cos
    000014E4 <00000000>             .DATA.L     __muld
    000014E8              L1050:                            
    000014E8 D14E                   MOV.L       L1086+4,R1 ; __addd
    000014EA 410B                   JSR         @R1
    000014EC 0009                   NOP
    000014EE E308                   MOV         #8,R3
    000014F0 33FC                   ADD         R15,R3
    000014F2 4C0B                   JSR         @R12
    000014F4 2F36                   MOV.L       R3,@-R15
    000014F6 7F0C                   ADD         #12,R15
    000014F8 D34B                   MOV.L       L1086+8,R3 ; _sin
    000014FA E008                   MOV         #8,R0
    000014FC 30FC                   ADD         R15,R0
    000014FE 430B                   JSR         @R3
    00001500 2F06                   MOV.L       R0,@-R15
    00001502 7F0C                   ADD         #12,R15
    00001504 D349                   MOV.L       L1086+12,R3; __muld
    00001506 60F3                   MOV         R15,R0
    00001508 7010                   ADD         #16,R0
    0000150A 430B                   JSR         @R3
    0000150C 2F06                   MOV.L       R0,@-R15
    0000150E 61F3                   MOV         R15,R1
    00001510 D247                   MOV.L       L1086+16,R2; __subdr
    00001512 7154                   ADD         #84,R1
    00001514 420B                   JSR         @R2
    00001516 2F16                   MOV.L       R1,@-R15
      XY_paramet   528    
      XY_paramet   529                    if( psd * ped <= 0)  
    00001518 D144                   MOV.L       L1086+12,R1; __muld
    0000151A 7FF8                   ADD         #-8,R15
    0000151C E050                   MOV         #80,R0
    0000151E 03FE                   MOV.L       @(R0,R15),R3
    00001520 2F36                   MOV.L       R3,@-R15
    00001522 E050                   MOV         #80,R0
    00001524 03FE                   MOV.L       @(R0,R15),R3
    00001526 2F36                   MOV.L       R3,@-R15
    00001528 52FE                   MOV.L       @(56,R15),R2
    0000152A 2F26                   MOV.L       R2,@-R15
    0000152C 52FE                   MOV.L       @(56,R15),R2
    0000152E 2F26                   MOV.L       R2,@-R15
    00001530 63F3                   MOV         R15,R3
    00001532 7310                   ADD         #16,R3
    00001534 410B                   JSR         @R1
    00001536 2F36                   MOV.L       R3,@-R15
    00001538 D33E                   MOV.L       L1086+20,R3; __led
    0000153A E200                   MOV         #0,R2
    0000153C 2F26                   MOV.L       R2,@-R15
    0000153E 430B                   JSR         @R3
    00001540 2F26                   MOV.L       R2,@-R15
    00001542 8800                   CMP/EQ      #0,R0




SH SERIES C/C++ Compiler (Ver. 6.0C)                                                                 01-Jun-2015 13:45:28  PAGE   58


SCT OFFSET   CODE       C LABEL     INSTRUCTION OPERAND    COMMENT

    00001544 895A                   BT          L1033
      XY_paramet   530                    {       inum++;
    00001546 7801                   ADD         #1,R8
      XY_paramet   531                            if( inum==1 )
    00001548 DE3B                   MOV.L       L1086+24,R14; _zbfs_d
    0000154A 6083                   MOV         R8,R0
    0000154C 8801                   CMP/EQ      #1,R0
    0000154E 8B11                   BF          L1034
      XY_paramet   532                            {       mindist = zbfs_d(x, y);
    00001550 E078                   MOV         #120,R0
    00001552 03FE                   MOV.L       @(R0,R15),R3
    00001554 2F36                   MOV.L       R3,@-R15
    00001556 E078                   MOV         #120,R0
    00001558 03FE                   MOV.L       @(R0,R15),R3
    0000155A 2F36                   MOV.L       R3,@-R15
    0000155C 9060                   MOV.W       L1086,R0   ; H'0088
    0000155E 02FE                   MOV.L       @(R0,R15),R2
    00001560 905E                   MOV.W       L1086,R0   ; H'0088
    00001562 2F26                   MOV.L       R2,@-R15
    00001564 02FE                   MOV.L       @(R0,R15),R2
    00001566 2F26                   MOV.L       R2,@-R15
    00001568 63F3                   MOV         R15,R3
    0000156A 7374                   ADD         #116,R3
    0000156C 4E0B                   JSR         @R14
    0000156E 2F36                   MOV.L       R3,@-R15
    00001570 A032                   BRA         L783
    00001572 7F14                   ADD         #20,R15
    00001574              L1034:                            
      XY_paramet   533                                    stake = zbfs_s(x, y);
      XY_paramet   534                            }
      XY_paramet   535                            else
      XY_paramet   536                            {       swapdist = zbfs_d(x, y);
    00001574 E078                   MOV         #120,R0
    00001576 01FE                   MOV.L       @(R0,R15),R1
    00001578 2F16                   MOV.L       R1,@-R15
    0000157A E078                   MOV         #120,R0
    0000157C 01FE                   MOV.L       @(R0,R15),R1
    0000157E 2F16                   MOV.L       R1,@-R15
    00001580 904E                   MOV.W       L1086,R0   ; H'0088
    00001582 03FE                   MOV.L       @(R0,R15),R3
    00001584 904C                   MOV.W       L1086,R0   ; H'0088
    00001586 2F36                   MOV.L       R3,@-R15
    00001588 03FE                   MOV.L       @(R0,R15),R3
    0000158A 2F36                   MOV.L       R3,@-R15
    0000158C 62F3                   MOV         R15,R2
    0000158E 722C                   ADD         #44,R2
    00001590 4E0B                   JSR         @R14
    00001592 2F26                   MOV.L       R2,@-R15
      XY_paramet   537                                    if( fabs(swapdist) < fabs(mindist) )
    00001594 DE29                   MOV.L       L1086+28,R14; _fabs
    00001596 7F0C                   ADD         #12,R15
    00001598 53FA                   MOV.L       @(40,R15),R3
    0000159A E208                   MOV         #8,R2
    0000159C 2F36                   MOV.L       R3,@-R15
    0000159E 53FA                   MOV.L       @(40,R15),R3
    000015A0 2F36                   MOV.L       R3,@-R15
    000015A2 32FC                   ADD         R15,R2




SH SERIES C/C++ Compiler (Ver. 6.0C)                                                                 01-Jun-2015 13:45:28  PAGE   59


SCT OFFSET   CODE       C LABEL     INSTRUCTION OPERAND    COMMENT

    000015A4 4E0B                   JSR         @R14
    000015A6 2F26                   MOV.L       R2,@-R15
    000015A8 7F04                   ADD         #4,R15
    000015AA E078                   MOV         #120,R0
    000015AC 01FE                   MOV.L       @(R0,R15),R1
    000015AE E308                   MOV         #8,R3
    000015B0 2F16                   MOV.L       R1,@-R15
    000015B2 E078                   MOV         #120,R0
    000015B4 01FE                   MOV.L       @(R0,R15),R1
    000015B6 2F16                   MOV.L       R1,@-R15
    000015B8 33FC                   ADD         R15,R3
    000015BA 4E0B                   JSR         @R14
    000015BC 2F36                   MOV.L       R3,@-R15
    000015BE D220                   MOV.L       L1086+32,R2; __ltd
    000015C0 420B                   JSR         @R2
    000015C2 7F0C                   ADD         #12,R15
    000015C4 8800                   CMP/EQ      #0,R0
    000015C6 8919                   BT          L1033
      XY_paramet   538                                    {       mindist = swapdist;
    000015C8 63F3                   MOV         R15,R3
    000015CA 731C                   ADD         #28,R3
    000015CC 6232                   MOV.L       @R3,R2
    000015CE 61F3                   MOV         R15,R1
    000015D0 7164                   ADD         #100,R1
    000015D2 2122                   MOV.L       R2,@R1
    000015D4 5231                   MOV.L       @(4,R3),R2
    000015D6 1121                   MOV.L       R2,@(4,R1)
    000015D8              L783:
      XY_paramet   539                                            stake = zbfs_s(x, y);
    000015D8 DE1A                   MOV.L       L1086+36,R14; _zbfs_s
    000015DA E078                   MOV         #120,R0
    000015DC 03FE                   MOV.L       @(R0,R15),R3
    000015DE E078                   MOV         #120,R0
    000015E0 2F36                   MOV.L       R3,@-R15
    000015E2 03FE                   MOV.L       @(R0,R15),R3
    000015E4 901C                   MOV.W       L1086,R0   ; H'0088
    000015E6 2F36                   MOV.L       R3,@-R15
    000015E8 02FE                   MOV.L       @(R0,R15),R2
    000015EA 2F26                   MOV.L       R2,@-R15
    000015EC 9018                   MOV.W       L1086,R0   ; H'0088
    000015EE 02FE                   MOV.L       @(R0,R15),R2
    000015F0 2F26                   MOV.L       R2,@-R15
    000015F2 63F3                   MOV         R15,R3
    000015F4 737C                   ADD         #124,R3
    000015F6 4E0B                   JSR         @R14
    000015F8 2F36                   MOV.L       R3,@-R15
    000015FA 7F14                   ADD         #20,R15
    000015FC              L1033:                            
    000015FC 7901                   ADD         #1,R9
    000015FE              L1027:                            
    000015FE DE12                   MOV.L       L1086+40,R14; _route
    00001600 52E9                   MOV.L       @(36,R14),R2
    00001602 3923                   CMP/GE      R2,R9
    00001604 8901                   BT          L1087
    00001606 ADA2                   BRA         L1028
    00001608 0009                   NOP
    0000160A              L1087:                            




SH SERIES C/C++ Compiler (Ver. 6.0C)                                                                 01-Jun-2015 13:45:28  PAGE   60


SCT OFFSET   CODE       C LABEL     INSTRUCTION OPERAND    COMMENT

      XY_paramet   540                                    }
      XY_paramet   541                            }
      XY_paramet   542                    }
      XY_paramet   543            }
      XY_paramet   544    
      XY_paramet   545            if( inum == 0 )
    0000160A 2888                   TST         R8,R8
    0000160C 8B22                   BF          L1037
      XY_paramet   546            {       return -(1e10);
    0000160E 9308                   MOV.W       L1086+2,R3 ; H'00A8
    00001610 D00E                   MOV.L       L1086+44,R0; H'C202A05F
    00001612 33FC                   ADD         R15,R3
    00001614 6132                   MOV.L       @R3,R1
    00001616 2102                   MOV.L       R0,@R1
    00001618 D00D                   MOV.L       L1086+48,R0; H'20000000
    0000161A 1101                   MOV.L       R0,@(4,R1)
    0000161C A031                   BRA         L1038
    0000161E 0009                   NOP
    00001620              L1086:                            
    00001620 0088                   .DATA.W     H'0088
    00001622 00A8                   .DATA.W     H'00A8
    00001624 <00000000>             .DATA.L     __addd
    00001628 <00000000>             .DATA.L     _sin
    0000162C <00000000>             .DATA.L     __muld
    00001630 <00000000>             .DATA.L     __subdr
    00001634 <00000000>             .DATA.L     __led
    00001638 <00000000>             .DATA.L     _zbfs_d
    0000163C <00000000>             .DATA.L     _fabs
    00001640 <00000000>             .DATA.L     __ltd
    00001644 <00000000>             .DATA.L     _zbfs_s
    00001648 <00000000>             .DATA.L     _route
    0000164C C202A05F               .DATA.L     H'C202A05F
    00001650 20000000               .DATA.L     H'20000000
    00001654              L1037:                            
      XY_paramet   547            }
      XY_paramet   548    
      XY_paramet   549            if( sd==0 )
    00001654 62F2                   MOV.L       @R15,R2
    00001656 2228                   TST         R2,R2
    00001658 8B0A                   BF          L1039
      XY_paramet   550            {       return stake;
    0000165A 63F3                   MOV         R15,R3
    0000165C 921D                   MOV.W       L1088,R2   ; H'00A8
    0000165E 736C                   ADD         #108,R3
    00001660 6032                   MOV.L       @R3,R0
    00001662 32FC                   ADD         R15,R2
    00001664 6122                   MOV.L       @R2,R1
    00001666 2102                   MOV.L       R0,@R1
    00001668 5031                   MOV.L       @(4,R3),R0
    0000166A 1101                   MOV.L       R0,@(4,R1)
    0000166C A009                   BRA         L1038
    0000166E 0009                   NOP
    00001670              L1039:                            
      XY_paramet   551            }
      XY_paramet   552            else
      XY_paramet   553            {       return mindist;
    00001670 9113                   MOV.W       L1088,R1   ; H'00A8




SH SERIES C/C++ Compiler (Ver. 6.0C)                                                                 01-Jun-2015 13:45:28  PAGE   61


SCT OFFSET   CODE       C LABEL     INSTRUCTION OPERAND    COMMENT

    00001672 63F3                   MOV         R15,R3
    00001674 31FC                   ADD         R15,R1
    00001676 7364                   ADD         #100,R3
    00001678 6212                   MOV.L       @R1,R2
    0000167A 6032                   MOV.L       @R3,R0
    0000167C 2202                   MOV.L       R0,@R2
    0000167E 5031                   MOV.L       @(4,R3),R0
    00001680 1201                   MOV.L       R0,@(4,R2)
      XY_paramet   554            }
      XY_paramet   555    }
    00001682              L1038:                            
    00001682 910B                   MOV.W       L1088+2,R1 ; H'0084
    00001684 3F1C                   ADD         R1,R15
    00001686 4F16                   LDS.L       @R15+,MACL
    00001688 4F26                   LDS.L       @R15+,PR
    0000168A 68F6                   MOV.L       @R15+,R8
    0000168C 69F6                   MOV.L       @R15+,R9
    0000168E 6AF6                   MOV.L       @R15+,R10
    00001690 6BF6                   MOV.L       @R15+,R11
    00001692 6CF6                   MOV.L       @R15+,R12
    00001694 6DF6                   MOV.L       @R15+,R13
    00001696 000B                   RTS
    00001698 6EF6                   MOV.L       @R15+,R14
    0000169A              L1088:                            
    0000169A 00A8                   .DATA.W     H'00A8
    0000169C 0084                   .DATA.W     H'0084
      XY_paramet   556    
      XY_paramet   557    
C   00000000              L563:
    00000000 2564                   .SDATA      "%d"
    00000002 00                     .DATA.B     H'00
    00000003 00000001               .RES.B      1
    00000004              L567:
    00000004 B8B2B8C7               .DATA.B     H'B8,H'B2,H'B8,H'C7
    00000008 3F                     .SDATA      "?"
    00000009 00                     .DATA.B     H'00
    0000000A 00000002               .RES.W      1
    0000000C              L568:
    0000000C 596573203A             .SDATA      "Yes : [F1]"
             205B46315D   
    00000016 00                     .DATA.B     H'00
    00000017 00000001               .RES.B      1
    00000018              L569:
    00000018 4E6F20203A             .SDATA      "No  : [F6]"
             205B46365D   
    00000022 00                     .DATA.B     H'00
    00000023              L576:
    00000023 00                     .DATA.B     H'00
    00000024 0000000C01             .DATAB.B    12,0
             00           
    00000030              L580:
    00000030 CEC4BCFEC3             .DATA.B     H'CE,H'C4,H'BC,H'FE,H'C3,H'FB
             FB           
    00000036 282A2E7372             .SDATA      "(*.srd)"
             6429         
    0000003D 00                     .DATA.B     H'00
    0000003E 00000002               .RES.W      1




SH SERIES C/C++ Compiler (Ver. 6.0C)                                                                 01-Jun-2015 13:45:28  PAGE   62


SCT OFFSET   CODE       C LABEL     INSTRUCTION OPERAND    COMMENT

    00000040              L583:
    00000040 2E737264               .SDATA      ".srd"
    00000044 00                     .DATA.B     H'00
    00000045 00000001               .RES.B      1
    00000046 00000002               .RES.W      1
    00000048              L590:
    00000048 B1A3B4E6CE             .DATA.B     H'B1,H'A3,H'B4,H'E6,H'CE,H'AA
             AA           
    0000004E 20                     .SDATA      " "
    0000004F 00                     .DATA.B     H'00
    00000050              L591:
    00000050 B4F2BFAA               .DATA.B     H'B4,H'F2,H'BF,H'AA
    00000054 20                     .SDATA      " "
    00000055 00                     .DATA.B     H'00
    00000056 00000002               .RES.W      1
    00000058              L592:
    00000058 D0C2BDA8               .DATA.B     H'D0,H'C2,H'BD,H'A8
    0000005C 20                     .SDATA      " "
    0000005D 00                     .DATA.B     H'00
    0000005E              L597:
    0000005E 00                     .DATA.B     H'00
    0000005F 0000000C01             .DATAB.B    12,0
             00           
    0000006B 00000001               .RES.B      1
    0000006C              L610:
    0000006C 4E6F204669             .SDATA      "No File!"
             6C6521       
    00000074 00                     .DATA.B     H'00
    00000075 00000001               .RES.B      1
    00000076 00000002               .RES.W      1
    00000078              L614:
    00000078 D0C2BDA8               .DATA.B     H'D0,H'C2,H'BD,H'A8
    0000007C 3F                     .SDATA      "?"
    0000007D 00                     .DATA.B     H'00
    0000007E 00000002               .RES.W      1
    00000080              L616:
    00000080 B1A3B4E6CA             .DATA.B     H'B1,H'A3,H'B4,H'E6,H'CA,H'FD,H'BE,H'DD
             FDBEDD       
    00000088 3F                     .SDATA      "?"
    00000089 00                     .DATA.B     H'00
    0000008A 00000002               .RES.W      1
    0000008C              L623:
    0000008C <00000000>             .DATA.L     L624,L625,L626,L627,L628,L629,L630,L631,L632
             <00000000>   
             <00000000>   
             <00000000>   
             <00000000>   
             <00000000>   
             <00000000>   
             <00000000>   
             <00000000>   
    000000B0              L634:
    000000B0 <00000000>             .DATA.L     L635,L635,L635,L635,L635
             <00000000>   
             <00000000>   
             <00000000>   
             <00000000>   




SH SERIES C/C++ Compiler (Ver. 6.0C)                                                                 01-Jun-2015 13:45:28  PAGE   63


SCT OFFSET   CODE       C LABEL     INSTRUCTION OPERAND    COMMENT

    000000C4              L637:
    000000C4 <00000000>             .DATA.L     L638,L639,L640,L641,L642,L643,L644,L645,L646
             <00000000>   
             <00000000>   
             <00000000>   
             <00000000>   
             <00000000>   
             <00000000>   
             <00000000>   
             <00000000>   
    000000E8              L658:
    000000E8 00                     .DATA.B     H'00
    000000E9 0000000C01             .DATAB.B    12,0
             00           
    000000F5 00000001               .RES.B      1
    000000F6 00000002               .RES.W      1
    000000F8              L663:
    000000F8 CEC4BCFE00             .DATA.B     H'CE,H'C4,H'BC,H'FE,H'00
    000000FD 00000001               .RES.B      1
    000000FE 00000002               .RES.W      1
    00000100              L664:
    00000100 CCEDBCD300             .DATA.B     H'CC,H'ED,H'BC,H'D3,H'00
    00000105 00000001               .RES.B      1
    00000106 00000002               .RES.W      1
    00000108              L666:
    00000108 B2E5C8EB               .DATA.B     H'B2,H'E5,H'C8,H'EB
    0000010C 20                     .SDATA      " "
    0000010D 00                     .DATA.B     H'00
    0000010E 00000002               .RES.W      1
    00000110              L667:
    00000110 C9BED0D0               .DATA.B     H'C9,H'BE,H'D0,H'D0
    00000114 20                     .SDATA      " "
    00000115 00                     .DATA.B     H'00
    00000116 00000002               .RES.W      1
    00000118              L668:
    00000118 C7E5BFD5               .DATA.B     H'C7,H'E5,H'BF,H'D5
    0000011C 20                     .SDATA      " "
    0000011D 00                     .DATA.B     H'00
    0000011E 00000002               .RES.W      1
    00000120              L669:
    00000120 3F                     .SDATA      "?"
    00000121 00                     .DATA.B     H'00
    00000122 00000002               .RES.W      1
    00000124              L674:
    00000124 256C66                 .SDATA      "%lf"
    00000127 00                     .DATA.B     H'00
    00000128              L675:
    00000128 2573                   .SDATA      "%s"
    0000012A 00                     .DATA.B     H'00
    0000012B 00000001               .RES.B      1
    0000012C              L679:
    0000012C B1A3B4E6               .DATA.B     H'B1,H'A3,H'B4,H'E6
    00000130 3F                     .SDATA      "?"
    00000131 00                     .DATA.B     H'00
    00000132 00000002               .RES.W      1
    00000134              L686:
    00000134 C9BE                   .DATA.B     H'C9,H'BE




SH SERIES C/C++ Compiler (Ver. 6.0C)                                                                 01-Jun-2015 13:45:28  PAGE   64


SCT OFFSET   CODE       C LABEL     INSTRUCTION OPERAND    COMMENT

    00000136 20                     .SDATA      " "
    00000137 B3FD                   .DATA.B     H'B3,H'FD
    00000139 20                     .SDATA      " "
    0000013A D2BB                   .DATA.B     H'D2,H'BB
    0000013C 20                     .SDATA      " "
    0000013D D0D0                   .DATA.B     H'D0,H'D0
    0000013F 3F                     .SDATA      "?"
    00000140 00                     .DATA.B     H'00
    00000141 00000001               .RES.B      1
    00000142 00000002               .RES.W      1
    00000144              L687:
    00000144 5B46315D59             .SDATA      "[F1]Yes   [F6]No"
             6573202020   
             5B46365D4E   
             6F           
    00000154 00                     .DATA.B     H'00
    00000155 00000001               .RES.B      1
    00000156 00000002               .RES.W      1
    00000158              L689:
    00000158 C7E5                   .DATA.B     H'C7,H'E5
    0000015A 20                     .SDATA      " "
    0000015B BFD5                   .DATA.B     H'BF,H'D5
    0000015D 20                     .SDATA      " "
    0000015E CBF9                   .DATA.B     H'CB,H'F9
    00000160 20                     .SDATA      " "
    00000161 D3D0                   .DATA.B     H'D3,H'D0
    00000163 203F                   .SDATA      " ?"
    00000165 00                     .DATA.B     H'00
    00000166 00000002               .RES.W      1
    00000168              L691:
    00000168 CFDFC2B7C3             .DATA.B     H'CF,H'DF,H'C2,H'B7,H'C3,H'FB,H'B3,H'C6,H'00
             FBB3C600     
    00000171 00000001               .RES.B      1
    00000172 00000002               .RES.W      1
    00000174              L693:
    00000174 C7EBB1A3B4             .DATA.B     H'C7,H'EB,H'B1,H'A3,H'B4,H'E6,H'CF,H'DF,H'C2,H'B7,H'CE,H'C4,H'BC,H'FE
             E6CFDFC2B7   
             CEC4BCFE     
    00000182 20                     .SDATA      " "
    00000183 00                     .DATA.B     H'00
    00000184              L624:
    00000184 4448                   .SDATA      "DH"
    00000186 00                     .DATA.B     H'00
    00000187 00000001               .RES.B      1
    00000188              L625:
    00000188 51445A48               .SDATA      "QDZH"
    0000018C 00                     .DATA.B     H'00
    0000018D 00000001               .RES.B      1
    0000018E 00000002               .RES.W      1
    00000190              L626:
    00000190 5A445A48               .SDATA      "ZDZH"
    00000194 00                     .DATA.B     H'00
    00000195 00000001               .RES.B      1
    00000196 00000002               .RES.W      1
    00000198              L627:
    00000198 58                     .SDATA      "X"
    00000199 00                     .DATA.B     H'00




SH SERIES C/C++ Compiler (Ver. 6.0C)                                                                 01-Jun-2015 13:45:28  PAGE   65


SCT OFFSET   CODE       C LABEL     INSTRUCTION OPERAND    COMMENT

    0000019A 00000002               .RES.W      1
    0000019C              L628:
    0000019C 59                     .SDATA      "Y"
    0000019D 00                     .DATA.B     H'00
    0000019E 00000002               .RES.W      1
    000001A0              L629:
    000001A0 46574A                 .SDATA      "FWJ"
    000001A3 00                     .DATA.B     H'00
    000001A4              L630:
    000001A4 5A58                   .SDATA      "ZX"
    000001A6 00                     .DATA.B     H'00
    000001A7 00000001               .RES.B      1
    000001A8              L631:
    000001A8 5144424A               .SDATA      "QDBJ"
    000001AC 00                     .DATA.B     H'00
    000001AD 00000001               .RES.B      1
    000001AE 00000002               .RES.W      1
    000001B0              L632:
    000001B0 5A44424A               .SDATA      "ZDBJ"
    000001B4 00                     .DATA.B     H'00
    000001B5 00000001               .RES.B      1
    000001B6 00000002               .RES.W      1
    000001B8              L635:
    000001B8 00                     .DATA.B     H'00
    000001B9 00000001               .RES.B      1
    000001BA 00000002               .RES.W      1
    000001BC              L638:
    000001BC B5E3C3FB00             .DATA.B     H'B5,H'E3,H'C3,H'FB,H'00
    000001C1 00000001               .RES.B      1
    000001C2 00000002               .RES.W      1
    000001C4              L639:
    000001C4 C6F0B5E3D7             .DATA.B     H'C6,H'F0,H'B5,H'E3,H'D7,H'AE,H'BA,H'C5,H'00
             AEBAC500     
    000001CD 00000001               .RES.B      1
    000001CE 00000002               .RES.W      1
    000001D0              L640:
    000001D0 D6D5B5E3D7             .DATA.B     H'D6,H'D5,H'B5,H'E3,H'D7,H'AE,H'BA,H'C5,H'00
             AEBAC500     
    000001D9 00000001               .RES.B      1
    000001DA 00000002               .RES.W      1
    000001DC              L641:
    000001DC 58                     .SDATA      "X"
    000001DD D7F8B1EA               .DATA.B     H'D7,H'F8,H'B1,H'EA
    000001E1 20                     .SDATA      " "
    000001E2 00                     .DATA.B     H'00
    000001E3 00000001               .RES.B      1
    000001E4              L642:
    000001E4 59                     .SDATA      "Y"
    000001E5 D7F8B1EA               .DATA.B     H'D7,H'F8,H'B1,H'EA
    000001E9 20                     .SDATA      " "
    000001EA 00                     .DATA.B     H'00
    000001EB 00000001               .RES.B      1
    000001EC              L643:
    000001EC B7BDCEBBBD             .DATA.B     H'B7,H'BD,H'CE,H'BB,H'BD,H'C7
             C7           
    000001F2 20                     .SDATA      " "
    000001F3 00                     .DATA.B     H'00




SH SERIES C/C++ Compiler (Ver. 6.0C)                                                                 01-Jun-2015 13:45:28  PAGE   66


SCT OFFSET   CODE       C LABEL     INSTRUCTION OPERAND    COMMENT

    000001F4              L644:
    000001F4 D7AACFF2               .DATA.B     H'D7,H'AA,H'CF,H'F2
    000001F8 20                     .SDATA      " "
    000001F9 00                     .DATA.B     H'00
    000001FA 00000002               .RES.W      1
    000001FC              L645:
    000001FC C6F0B5E3B0             .DATA.B     H'C6,H'F0,H'B5,H'E3,H'B0,H'EB,H'BE,H'B6,H'00
             EBBEB600     
    00000205 00000001               .RES.B      1
    00000206 00000002               .RES.W      1
    00000208              L646:
    00000208 D6D5B5E3B0             .DATA.B     H'D6,H'D5,H'B5,H'E3,H'B0,H'EB,H'BE,H'B6,H'00
             EBBEB600     
















































SH SERIES C/C++ Compiler (Ver. 6.0C)                                                                 01-Jun-2015 13:45:28  PAGE    1


******** STATISTICS INFORMATION ********


********** ERROR INFORMATION ***********

NUMBER OF ERRORS:           0
NUMBER OF WARNINGS:        17




******* SOURCE LINE INFORMATION ********

COMPILED SOURCE LINE:      557



******* SECTION SIZE INFORMATION *******

PROGRAM  SECTION (P):                               0000169E Byte(s)
CONSTANT SECTION (C):                               00000211 Byte(s)
DATA     SECTION (D):                               00000000 Byte(s)
BSS      SECTION (B):                               00000000 Byte(s)

 TOTAL PROGRAM SIZE: 000018AF Byte(s)



********** LABEL INFORMATION ***********

NUMBER OF EXTERNAL REFERENCE SYMBOLS:           65
NUMBER OF EXTERNAL DEFINITION SYMBOLS:           9
NUMBER OF INTERNAL/EXTERNAL SYMBOLS:           293






























*** COMMAND PARAMETER ***


  -subcommand=C:\Users\ADMINI~1\AppData\Local\Temp\hmk1B75.tmp 

